
cviceni2.elf:     file format elf32-littlearm

Sections:
Idx Name          Size      VMA       LMA       File off  Algn
  0 .isr_vector   000000c0  08000000  08000000  00010000  2**0
                  CONTENTS, ALLOC, LOAD, READONLY, DATA
  1 .text         000009a4  080000c0  080000c0  000100c0  2**2
                  CONTENTS, ALLOC, LOAD, READONLY, CODE
  2 .rodata       00000018  08000a64  08000a64  00010a64  2**2
                  CONTENTS, ALLOC, LOAD, READONLY, DATA
  3 .ARM.extab    00000000  08000a7c  08000a7c  00020004  2**0
                  CONTENTS
  4 .ARM          00000000  08000a7c  08000a7c  00020004  2**0
                  CONTENTS
  5 .preinit_array 00000000  08000a7c  08000a7c  00020004  2**0
                  CONTENTS, ALLOC, LOAD, DATA
  6 .init_array   00000004  08000a7c  08000a7c  00010a7c  2**2
                  CONTENTS, ALLOC, LOAD, DATA
  7 .fini_array   00000004  08000a80  08000a80  00010a80  2**2
                  CONTENTS, ALLOC, LOAD, DATA
  8 .data         00000004  20000000  08000a84  00020000  2**2
                  CONTENTS, ALLOC, LOAD, DATA
  9 .bss          00000034  20000004  08000a88  00020004  2**2
                  ALLOC
 10 ._user_heap_stack 00000600  20000038  08000a88  00020038  2**0
                  ALLOC
 11 .ARM.attributes 00000028  00000000  00000000  00020004  2**0
                  CONTENTS, READONLY
 12 .comment      00000043  00000000  00000000  0002002c  2**0
                  CONTENTS, READONLY
 13 .debug_info   00003cb5  00000000  00000000  0002006f  2**0
                  CONTENTS, READONLY, DEBUGGING, OCTETS
 14 .debug_abbrev 00001268  00000000  00000000  00023d24  2**0
                  CONTENTS, READONLY, DEBUGGING, OCTETS
 15 .debug_loclists 00000fff  00000000  00000000  00024f8c  2**0
                  CONTENTS, READONLY, DEBUGGING, OCTETS
 16 .debug_aranges 00000238  00000000  00000000  00025f90  2**3
                  CONTENTS, READONLY, DEBUGGING, OCTETS
 17 .debug_rnglists 00000201  00000000  00000000  000261c8  2**0
                  CONTENTS, READONLY, DEBUGGING, OCTETS
 18 .debug_macro  0000a189  00000000  00000000  000263c9  2**0
                  CONTENTS, READONLY, DEBUGGING, OCTETS
 19 .debug_line   00004478  00000000  00000000  00030552  2**0
                  CONTENTS, READONLY, DEBUGGING, OCTETS
 20 .debug_str    00034358  00000000  00000000  000349ca  2**0
                  CONTENTS, READONLY, DEBUGGING, OCTETS
 21 .debug_frame  00000474  00000000  00000000  00068d24  2**2
                  CONTENTS, READONLY, DEBUGGING, OCTETS
 22 .debug_line_str 00000062  00000000  00000000  00069198  2**0
                  CONTENTS, READONLY, DEBUGGING, OCTETS

Disassembly of section .text:

080000c0 <__do_global_dtors_aux>:
 80000c0:	b510      	push	{r4, lr}
 80000c2:	4c06      	ldr	r4, [pc, #24]	; (80000dc <__do_global_dtors_aux+0x1c>)
 80000c4:	7823      	ldrb	r3, [r4, #0]
 80000c6:	2b00      	cmp	r3, #0
 80000c8:	d107      	bne.n	80000da <__do_global_dtors_aux+0x1a>
 80000ca:	4b05      	ldr	r3, [pc, #20]	; (80000e0 <__do_global_dtors_aux+0x20>)
 80000cc:	2b00      	cmp	r3, #0
 80000ce:	d002      	beq.n	80000d6 <__do_global_dtors_aux+0x16>
 80000d0:	4804      	ldr	r0, [pc, #16]	; (80000e4 <__do_global_dtors_aux+0x24>)
 80000d2:	e000      	b.n	80000d6 <__do_global_dtors_aux+0x16>
 80000d4:	bf00      	nop
 80000d6:	2301      	movs	r3, #1
 80000d8:	7023      	strb	r3, [r4, #0]
 80000da:	bd10      	pop	{r4, pc}
 80000dc:	20000004 	.word	0x20000004
 80000e0:	00000000 	.word	0x00000000
 80000e4:	08000a4c 	.word	0x08000a4c

080000e8 <frame_dummy>:
 80000e8:	4b04      	ldr	r3, [pc, #16]	; (80000fc <frame_dummy+0x14>)
 80000ea:	b510      	push	{r4, lr}
 80000ec:	2b00      	cmp	r3, #0
 80000ee:	d003      	beq.n	80000f8 <frame_dummy+0x10>
 80000f0:	4903      	ldr	r1, [pc, #12]	; (8000100 <frame_dummy+0x18>)
 80000f2:	4804      	ldr	r0, [pc, #16]	; (8000104 <frame_dummy+0x1c>)
 80000f4:	e000      	b.n	80000f8 <frame_dummy+0x10>
 80000f6:	bf00      	nop
 80000f8:	bd10      	pop	{r4, pc}
 80000fa:	46c0      	nop			; (mov r8, r8)
 80000fc:	00000000 	.word	0x00000000
 8000100:	20000008 	.word	0x20000008
 8000104:	08000a4c 	.word	0x08000a4c

08000108 <__udivsi3>:
 8000108:	2200      	movs	r2, #0
 800010a:	0843      	lsrs	r3, r0, #1
 800010c:	428b      	cmp	r3, r1
 800010e:	d374      	bcc.n	80001fa <__udivsi3+0xf2>
 8000110:	0903      	lsrs	r3, r0, #4
 8000112:	428b      	cmp	r3, r1
 8000114:	d35f      	bcc.n	80001d6 <__udivsi3+0xce>
 8000116:	0a03      	lsrs	r3, r0, #8
 8000118:	428b      	cmp	r3, r1
 800011a:	d344      	bcc.n	80001a6 <__udivsi3+0x9e>
 800011c:	0b03      	lsrs	r3, r0, #12
 800011e:	428b      	cmp	r3, r1
 8000120:	d328      	bcc.n	8000174 <__udivsi3+0x6c>
 8000122:	0c03      	lsrs	r3, r0, #16
 8000124:	428b      	cmp	r3, r1
 8000126:	d30d      	bcc.n	8000144 <__udivsi3+0x3c>
 8000128:	22ff      	movs	r2, #255	; 0xff
 800012a:	0209      	lsls	r1, r1, #8
 800012c:	ba12      	rev	r2, r2
 800012e:	0c03      	lsrs	r3, r0, #16
 8000130:	428b      	cmp	r3, r1
 8000132:	d302      	bcc.n	800013a <__udivsi3+0x32>
 8000134:	1212      	asrs	r2, r2, #8
 8000136:	0209      	lsls	r1, r1, #8
 8000138:	d065      	beq.n	8000206 <__udivsi3+0xfe>
 800013a:	0b03      	lsrs	r3, r0, #12
 800013c:	428b      	cmp	r3, r1
 800013e:	d319      	bcc.n	8000174 <__udivsi3+0x6c>
 8000140:	e000      	b.n	8000144 <__udivsi3+0x3c>
 8000142:	0a09      	lsrs	r1, r1, #8
 8000144:	0bc3      	lsrs	r3, r0, #15
 8000146:	428b      	cmp	r3, r1
 8000148:	d301      	bcc.n	800014e <__udivsi3+0x46>
 800014a:	03cb      	lsls	r3, r1, #15
 800014c:	1ac0      	subs	r0, r0, r3
 800014e:	4152      	adcs	r2, r2
 8000150:	0b83      	lsrs	r3, r0, #14
 8000152:	428b      	cmp	r3, r1
 8000154:	d301      	bcc.n	800015a <__udivsi3+0x52>
 8000156:	038b      	lsls	r3, r1, #14
 8000158:	1ac0      	subs	r0, r0, r3
 800015a:	4152      	adcs	r2, r2
 800015c:	0b43      	lsrs	r3, r0, #13
 800015e:	428b      	cmp	r3, r1
 8000160:	d301      	bcc.n	8000166 <__udivsi3+0x5e>
 8000162:	034b      	lsls	r3, r1, #13
 8000164:	1ac0      	subs	r0, r0, r3
 8000166:	4152      	adcs	r2, r2
 8000168:	0b03      	lsrs	r3, r0, #12
 800016a:	428b      	cmp	r3, r1
 800016c:	d301      	bcc.n	8000172 <__udivsi3+0x6a>
 800016e:	030b      	lsls	r3, r1, #12
 8000170:	1ac0      	subs	r0, r0, r3
 8000172:	4152      	adcs	r2, r2
 8000174:	0ac3      	lsrs	r3, r0, #11
 8000176:	428b      	cmp	r3, r1
 8000178:	d301      	bcc.n	800017e <__udivsi3+0x76>
 800017a:	02cb      	lsls	r3, r1, #11
 800017c:	1ac0      	subs	r0, r0, r3
 800017e:	4152      	adcs	r2, r2
 8000180:	0a83      	lsrs	r3, r0, #10
 8000182:	428b      	cmp	r3, r1
 8000184:	d301      	bcc.n	800018a <__udivsi3+0x82>
 8000186:	028b      	lsls	r3, r1, #10
 8000188:	1ac0      	subs	r0, r0, r3
 800018a:	4152      	adcs	r2, r2
 800018c:	0a43      	lsrs	r3, r0, #9
 800018e:	428b      	cmp	r3, r1
 8000190:	d301      	bcc.n	8000196 <__udivsi3+0x8e>
 8000192:	024b      	lsls	r3, r1, #9
 8000194:	1ac0      	subs	r0, r0, r3
 8000196:	4152      	adcs	r2, r2
 8000198:	0a03      	lsrs	r3, r0, #8
 800019a:	428b      	cmp	r3, r1
 800019c:	d301      	bcc.n	80001a2 <__udivsi3+0x9a>
 800019e:	020b      	lsls	r3, r1, #8
 80001a0:	1ac0      	subs	r0, r0, r3
 80001a2:	4152      	adcs	r2, r2
 80001a4:	d2cd      	bcs.n	8000142 <__udivsi3+0x3a>
 80001a6:	09c3      	lsrs	r3, r0, #7
 80001a8:	428b      	cmp	r3, r1
 80001aa:	d301      	bcc.n	80001b0 <__udivsi3+0xa8>
 80001ac:	01cb      	lsls	r3, r1, #7
 80001ae:	1ac0      	subs	r0, r0, r3
 80001b0:	4152      	adcs	r2, r2
 80001b2:	0983      	lsrs	r3, r0, #6
 80001b4:	428b      	cmp	r3, r1
 80001b6:	d301      	bcc.n	80001bc <__udivsi3+0xb4>
 80001b8:	018b      	lsls	r3, r1, #6
 80001ba:	1ac0      	subs	r0, r0, r3
 80001bc:	4152      	adcs	r2, r2
 80001be:	0943      	lsrs	r3, r0, #5
 80001c0:	428b      	cmp	r3, r1
 80001c2:	d301      	bcc.n	80001c8 <__udivsi3+0xc0>
 80001c4:	014b      	lsls	r3, r1, #5
 80001c6:	1ac0      	subs	r0, r0, r3
 80001c8:	4152      	adcs	r2, r2
 80001ca:	0903      	lsrs	r3, r0, #4
 80001cc:	428b      	cmp	r3, r1
 80001ce:	d301      	bcc.n	80001d4 <__udivsi3+0xcc>
 80001d0:	010b      	lsls	r3, r1, #4
 80001d2:	1ac0      	subs	r0, r0, r3
 80001d4:	4152      	adcs	r2, r2
 80001d6:	08c3      	lsrs	r3, r0, #3
 80001d8:	428b      	cmp	r3, r1
 80001da:	d301      	bcc.n	80001e0 <__udivsi3+0xd8>
 80001dc:	00cb      	lsls	r3, r1, #3
 80001de:	1ac0      	subs	r0, r0, r3
 80001e0:	4152      	adcs	r2, r2
 80001e2:	0883      	lsrs	r3, r0, #2
 80001e4:	428b      	cmp	r3, r1
 80001e6:	d301      	bcc.n	80001ec <__udivsi3+0xe4>
 80001e8:	008b      	lsls	r3, r1, #2
 80001ea:	1ac0      	subs	r0, r0, r3
 80001ec:	4152      	adcs	r2, r2
 80001ee:	0843      	lsrs	r3, r0, #1
 80001f0:	428b      	cmp	r3, r1
 80001f2:	d301      	bcc.n	80001f8 <__udivsi3+0xf0>
 80001f4:	004b      	lsls	r3, r1, #1
 80001f6:	1ac0      	subs	r0, r0, r3
 80001f8:	4152      	adcs	r2, r2
 80001fa:	1a41      	subs	r1, r0, r1
 80001fc:	d200      	bcs.n	8000200 <__udivsi3+0xf8>
 80001fe:	4601      	mov	r1, r0
 8000200:	4152      	adcs	r2, r2
 8000202:	4610      	mov	r0, r2
 8000204:	4770      	bx	lr
 8000206:	e7ff      	b.n	8000208 <__udivsi3+0x100>
 8000208:	b501      	push	{r0, lr}
 800020a:	2000      	movs	r0, #0
 800020c:	f000 f806 	bl	800021c <__aeabi_idiv0>
 8000210:	bd02      	pop	{r1, pc}
 8000212:	46c0      	nop			; (mov r8, r8)

08000214 <__aeabi_uidivmod>:
 8000214:	2900      	cmp	r1, #0
 8000216:	d0f7      	beq.n	8000208 <__udivsi3+0x100>
 8000218:	e776      	b.n	8000108 <__udivsi3>
 800021a:	4770      	bx	lr

0800021c <__aeabi_idiv0>:
 800021c:	4770      	bx	lr
 800021e:	46c0      	nop			; (mov r8, r8)

08000220 <MX_GPIO_Init>:
  * @brief GPIO Initialization Function
  * @param None
  * @retval None
  */
static void MX_GPIO_Init(void)
{
 8000220:	b5f0      	push	{r4, r5, r6, r7, lr}
 8000222:	46de      	mov	lr, fp
 8000224:	4657      	mov	r7, sl
 8000226:	464e      	mov	r6, r9
 8000228:	4645      	mov	r5, r8
 800022a:	b5e0      	push	{r5, r6, r7, lr}
 800022c:	b08d      	sub	sp, #52	; 0x34
  LL_EXTI_InitTypeDef EXTI_InitStruct = {0};
 800022e:	af0a      	add	r7, sp, #40	; 0x28
 8000230:	2208      	movs	r2, #8
 8000232:	2100      	movs	r1, #0
 8000234:	0038      	movs	r0, r7
 8000236:	f000 fbdd 	bl	80009f4 <memset>
  LL_GPIO_InitTypeDef GPIO_InitStruct = {0};
 800023a:	2218      	movs	r2, #24
 800023c:	2100      	movs	r1, #0
 800023e:	a804      	add	r0, sp, #16
 8000240:	f000 fbd8 	bl	80009f4 <memset>
  * @retval None
*/
__STATIC_INLINE void LL_AHB1_GRP1_EnableClock(uint32_t Periphs)
{
  __IO uint32_t tmpreg;
  SET_BIT(RCC->AHBENR, Periphs);
 8000244:	4b40      	ldr	r3, [pc, #256]	; (8000348 <MX_GPIO_Init+0x128>)
 8000246:	695a      	ldr	r2, [r3, #20]
 8000248:	2180      	movs	r1, #128	; 0x80
 800024a:	0309      	lsls	r1, r1, #12
 800024c:	430a      	orrs	r2, r1
 800024e:	615a      	str	r2, [r3, #20]
  /* Delay after an RCC peripheral clock enabling */
  tmpreg = READ_BIT(RCC->AHBENR, Periphs);
 8000250:	695a      	ldr	r2, [r3, #20]
 8000252:	400a      	ands	r2, r1
 8000254:	9203      	str	r2, [sp, #12]
  (void)tmpreg;
 8000256:	9a03      	ldr	r2, [sp, #12]
  SET_BIT(RCC->AHBENR, Periphs);
 8000258:	695a      	ldr	r2, [r3, #20]
 800025a:	2180      	movs	r1, #128	; 0x80
 800025c:	03c9      	lsls	r1, r1, #15
 800025e:	430a      	orrs	r2, r1
 8000260:	615a      	str	r2, [r3, #20]
  tmpreg = READ_BIT(RCC->AHBENR, Periphs);
 8000262:	695a      	ldr	r2, [r3, #20]
 8000264:	400a      	ands	r2, r1
 8000266:	9202      	str	r2, [sp, #8]
  (void)tmpreg;
 8000268:	9a02      	ldr	r2, [sp, #8]
  SET_BIT(RCC->AHBENR, Periphs);
 800026a:	695a      	ldr	r2, [r3, #20]
 800026c:	2180      	movs	r1, #128	; 0x80
 800026e:	0289      	lsls	r1, r1, #10
 8000270:	430a      	orrs	r2, r1
 8000272:	615a      	str	r2, [r3, #20]
  tmpreg = READ_BIT(RCC->AHBENR, Periphs);
 8000274:	695a      	ldr	r2, [r3, #20]
 8000276:	400a      	ands	r2, r1
 8000278:	9201      	str	r2, [sp, #4]
  (void)tmpreg;
 800027a:	9a01      	ldr	r2, [sp, #4]
  SET_BIT(RCC->AHBENR, Periphs);
 800027c:	695a      	ldr	r2, [r3, #20]
 800027e:	2180      	movs	r1, #128	; 0x80
 8000280:	02c9      	lsls	r1, r1, #11
 8000282:	430a      	orrs	r2, r1
 8000284:	615a      	str	r2, [r3, #20]
  tmpreg = READ_BIT(RCC->AHBENR, Periphs);
 8000286:	695b      	ldr	r3, [r3, #20]
 8000288:	400b      	ands	r3, r1
 800028a:	9300      	str	r3, [sp, #0]
  (void)tmpreg;
 800028c:	9b00      	ldr	r3, [sp, #0]
  *         @arg @ref LL_GPIO_PIN_ALL
  * @retval None
  */
__STATIC_INLINE void LL_GPIO_ResetOutputPin(GPIO_TypeDef *GPIOx, uint32_t PinMask)
{
  WRITE_REG(GPIOx->BRR, PinMask);
 800028e:	2390      	movs	r3, #144	; 0x90
 8000290:	05db      	lsls	r3, r3, #23
 8000292:	4698      	mov	r8, r3
 8000294:	001a      	movs	r2, r3
 8000296:	2310      	movs	r3, #16
 8000298:	6293      	str	r3, [r2, #40]	; 0x28
 800029a:	2220      	movs	r2, #32
 800029c:	4691      	mov	r9, r2
 800029e:	4642      	mov	r2, r8
 80002a0:	4649      	mov	r1, r9
 80002a2:	6291      	str	r1, [r2, #40]	; 0x28
 80002a4:	4a29      	ldr	r2, [pc, #164]	; (800034c <MX_GPIO_Init+0x12c>)
 80002a6:	4692      	mov	sl, r2
 80002a8:	2501      	movs	r5, #1
 80002aa:	6295      	str	r5, [r2, #40]	; 0x28
  *         @arg @ref LL_SYSCFG_EXTI_LINE15
  * @retval None
  */
__STATIC_INLINE void LL_SYSCFG_SetEXTISource(uint32_t Port, uint32_t Line)
{
  MODIFY_REG(SYSCFG->EXTICR[Line & 0xFF], SYSCFG_EXTICR1_EXTI0 << (Line >> 16), Port << (Line >> 16));
 80002ac:	4a28      	ldr	r2, [pc, #160]	; (8000350 <MX_GPIO_Init+0x130>)
 80002ae:	6953      	ldr	r3, [r2, #20]
 80002b0:	31d0      	adds	r1, #208	; 0xd0
 80002b2:	438b      	bics	r3, r1
 80002b4:	4649      	mov	r1, r9
 80002b6:	430b      	orrs	r3, r1
 80002b8:	6153      	str	r3, [r2, #20]
  MODIFY_REG(GPIOx->PUPDR, ((Pin * Pin) * GPIO_PUPDR_PUPDR0), ((Pin * Pin) * Pull));
 80002ba:	4e26      	ldr	r6, [pc, #152]	; (8000354 <MX_GPIO_Init+0x134>)
 80002bc:	68f3      	ldr	r3, [r6, #12]
 80002be:	4a26      	ldr	r2, [pc, #152]	; (8000358 <MX_GPIO_Init+0x138>)
 80002c0:	4013      	ands	r3, r2
 80002c2:	60f3      	str	r3, [r6, #12]
  MODIFY_REG(GPIOx->MODER, ((Pin * Pin) * GPIO_MODER_MODER0), ((Pin * Pin) * Mode));
 80002c4:	6833      	ldr	r3, [r6, #0]
 80002c6:	4013      	ands	r3, r2
 80002c8:	6033      	str	r3, [r6, #0]

  /**/
  LL_GPIO_SetPinMode(B1_GPIO_Port, B1_Pin, LL_GPIO_MODE_INPUT);

  /**/
  EXTI_InitStruct.Line_0_31 = LL_EXTI_LINE_13;
 80002ca:	2380      	movs	r3, #128	; 0x80
 80002cc:	019b      	lsls	r3, r3, #6
 80002ce:	930a      	str	r3, [sp, #40]	; 0x28
  EXTI_InitStruct.LineCommand = ENABLE;
 80002d0:	713d      	strb	r5, [r7, #4]
  EXTI_InitStruct.Mode = LL_EXTI_MODE_IT;
 80002d2:	2400      	movs	r4, #0
 80002d4:	717c      	strb	r4, [r7, #5]
  EXTI_InitStruct.Trigger = LL_EXTI_TRIGGER_FALLING;
 80002d6:	2202      	movs	r2, #2
 80002d8:	4693      	mov	fp, r2
 80002da:	71ba      	strb	r2, [r7, #6]
  LL_EXTI_Init(&EXTI_InitStruct);
 80002dc:	0038      	movs	r0, r7
 80002de:	f000 f9c5 	bl	800066c <LL_EXTI_Init>

  /**/
  GPIO_InitStruct.Pin = S2_Pin;
 80002e2:	9504      	str	r5, [sp, #16]
  GPIO_InitStruct.Mode = LL_GPIO_MODE_INPUT;
 80002e4:	9405      	str	r4, [sp, #20]
  GPIO_InitStruct.Pull = LL_GPIO_PULL_UP;
 80002e6:	9508      	str	r5, [sp, #32]
  LL_GPIO_Init(S2_GPIO_Port, &GPIO_InitStruct);
 80002e8:	a904      	add	r1, sp, #16
 80002ea:	0030      	movs	r0, r6
 80002ec:	f000 fa22 	bl	8000734 <LL_GPIO_Init>

  /**/
  GPIO_InitStruct.Pin = S1_Pin;
 80002f0:	465a      	mov	r2, fp
 80002f2:	9204      	str	r2, [sp, #16]
  GPIO_InitStruct.Mode = LL_GPIO_MODE_INPUT;
 80002f4:	9405      	str	r4, [sp, #20]
  GPIO_InitStruct.Pull = LL_GPIO_PULL_UP;
 80002f6:	9508      	str	r5, [sp, #32]
  LL_GPIO_Init(S1_GPIO_Port, &GPIO_InitStruct);
 80002f8:	a904      	add	r1, sp, #16
 80002fa:	0030      	movs	r0, r6
 80002fc:	f000 fa1a 	bl	8000734 <LL_GPIO_Init>

  /**/
  GPIO_InitStruct.Pin = LED1_Pin;
 8000300:	2310      	movs	r3, #16
 8000302:	9304      	str	r3, [sp, #16]
  GPIO_InitStruct.Mode = LL_GPIO_MODE_OUTPUT;
 8000304:	9505      	str	r5, [sp, #20]
  GPIO_InitStruct.Speed = LL_GPIO_SPEED_FREQ_LOW;
 8000306:	9406      	str	r4, [sp, #24]
  GPIO_InitStruct.OutputType = LL_GPIO_OUTPUT_PUSHPULL;
 8000308:	9407      	str	r4, [sp, #28]
  GPIO_InitStruct.Pull = LL_GPIO_PULL_NO;
 800030a:	9408      	str	r4, [sp, #32]
  LL_GPIO_Init(LED1_GPIO_Port, &GPIO_InitStruct);
 800030c:	a904      	add	r1, sp, #16
 800030e:	4640      	mov	r0, r8
 8000310:	f000 fa10 	bl	8000734 <LL_GPIO_Init>

  /**/
  GPIO_InitStruct.Pin = LD2_Pin;
 8000314:	464b      	mov	r3, r9
 8000316:	9304      	str	r3, [sp, #16]
  GPIO_InitStruct.Mode = LL_GPIO_MODE_OUTPUT;
 8000318:	9505      	str	r5, [sp, #20]
  GPIO_InitStruct.Speed = LL_GPIO_SPEED_FREQ_LOW;
 800031a:	9406      	str	r4, [sp, #24]
  GPIO_InitStruct.OutputType = LL_GPIO_OUTPUT_PUSHPULL;
 800031c:	9407      	str	r4, [sp, #28]
  GPIO_InitStruct.Pull = LL_GPIO_PULL_NO;
 800031e:	9408      	str	r4, [sp, #32]
  LL_GPIO_Init(LD2_GPIO_Port, &GPIO_InitStruct);
 8000320:	a904      	add	r1, sp, #16
 8000322:	4640      	mov	r0, r8
 8000324:	f000 fa06 	bl	8000734 <LL_GPIO_Init>

  /**/
  GPIO_InitStruct.Pin = LED2_Pin;
 8000328:	9504      	str	r5, [sp, #16]
  GPIO_InitStruct.Mode = LL_GPIO_MODE_OUTPUT;
 800032a:	9505      	str	r5, [sp, #20]
  GPIO_InitStruct.Speed = LL_GPIO_SPEED_FREQ_LOW;
 800032c:	9406      	str	r4, [sp, #24]
  GPIO_InitStruct.OutputType = LL_GPIO_OUTPUT_PUSHPULL;
 800032e:	9407      	str	r4, [sp, #28]
  GPIO_InitStruct.Pull = LL_GPIO_PULL_NO;
 8000330:	9408      	str	r4, [sp, #32]
  LL_GPIO_Init(LED2_GPIO_Port, &GPIO_InitStruct);
 8000332:	a904      	add	r1, sp, #16
 8000334:	4650      	mov	r0, sl
 8000336:	f000 f9fd 	bl	8000734 <LL_GPIO_Init>

/* USER CODE BEGIN MX_GPIO_Init_2 */
/* USER CODE END MX_GPIO_Init_2 */
}
 800033a:	b00d      	add	sp, #52	; 0x34
 800033c:	bcf0      	pop	{r4, r5, r6, r7}
 800033e:	46bb      	mov	fp, r7
 8000340:	46b2      	mov	sl, r6
 8000342:	46a9      	mov	r9, r5
 8000344:	46a0      	mov	r8, r4
 8000346:	bdf0      	pop	{r4, r5, r6, r7, pc}
 8000348:	40021000 	.word	0x40021000
 800034c:	48000400 	.word	0x48000400
 8000350:	40010000 	.word	0x40010000
 8000354:	48000800 	.word	0x48000800
 8000358:	f3ffffff 	.word	0xf3ffffff

0800035c <MX_USART2_UART_Init>:
{
 800035c:	b5f0      	push	{r4, r5, r6, r7, lr}
 800035e:	b091      	sub	sp, #68	; 0x44
  LL_USART_InitTypeDef USART_InitStruct = {0};
 8000360:	221c      	movs	r2, #28
 8000362:	2100      	movs	r1, #0
 8000364:	a809      	add	r0, sp, #36	; 0x24
 8000366:	f000 fb45 	bl	80009f4 <memset>
  LL_GPIO_InitTypeDef GPIO_InitStruct = {0};
 800036a:	2218      	movs	r2, #24
 800036c:	2100      	movs	r1, #0
 800036e:	a803      	add	r0, sp, #12
 8000370:	f000 fb40 	bl	80009f4 <memset>
  * @retval None
*/
__STATIC_INLINE void LL_APB1_GRP1_EnableClock(uint32_t Periphs)
{
  __IO uint32_t tmpreg;
  SET_BIT(RCC->APB1ENR, Periphs);
 8000374:	4b26      	ldr	r3, [pc, #152]	; (8000410 <MX_USART2_UART_Init+0xb4>)
 8000376:	69d9      	ldr	r1, [r3, #28]
 8000378:	2280      	movs	r2, #128	; 0x80
 800037a:	0292      	lsls	r2, r2, #10
 800037c:	4311      	orrs	r1, r2
 800037e:	61d9      	str	r1, [r3, #28]
  /* Delay after an RCC peripheral clock enabling */
  tmpreg = READ_BIT(RCC->APB1ENR, Periphs);
 8000380:	69d9      	ldr	r1, [r3, #28]
 8000382:	4011      	ands	r1, r2
 8000384:	9102      	str	r1, [sp, #8]
  (void)tmpreg;
 8000386:	9902      	ldr	r1, [sp, #8]
  SET_BIT(RCC->AHBENR, Periphs);
 8000388:	6959      	ldr	r1, [r3, #20]
 800038a:	4311      	orrs	r1, r2
 800038c:	6159      	str	r1, [r3, #20]
  tmpreg = READ_BIT(RCC->AHBENR, Periphs);
 800038e:	695b      	ldr	r3, [r3, #20]
 8000390:	4013      	ands	r3, r2
 8000392:	9301      	str	r3, [sp, #4]
  (void)tmpreg;
 8000394:	9b01      	ldr	r3, [sp, #4]
  GPIO_InitStruct.Pin = USART_TX_Pin;
 8000396:	2304      	movs	r3, #4
 8000398:	9303      	str	r3, [sp, #12]
  GPIO_InitStruct.Mode = LL_GPIO_MODE_ALTERNATE;
 800039a:	2402      	movs	r4, #2
 800039c:	9404      	str	r4, [sp, #16]
  GPIO_InitStruct.Alternate = LL_GPIO_AF_1;
 800039e:	2501      	movs	r5, #1
 80003a0:	9508      	str	r5, [sp, #32]
  LL_GPIO_Init(USART_TX_GPIO_Port, &GPIO_InitStruct);
 80003a2:	2790      	movs	r7, #144	; 0x90
 80003a4:	05ff      	lsls	r7, r7, #23
 80003a6:	a903      	add	r1, sp, #12
 80003a8:	0038      	movs	r0, r7
 80003aa:	f000 f9c3 	bl	8000734 <LL_GPIO_Init>
  GPIO_InitStruct.Pin = USART_RX_Pin;
 80003ae:	2608      	movs	r6, #8
 80003b0:	9603      	str	r6, [sp, #12]
  GPIO_InitStruct.Mode = LL_GPIO_MODE_ALTERNATE;
 80003b2:	9404      	str	r4, [sp, #16]
  GPIO_InitStruct.Speed = LL_GPIO_SPEED_FREQ_LOW;
 80003b4:	2400      	movs	r4, #0
 80003b6:	9405      	str	r4, [sp, #20]
  GPIO_InitStruct.OutputType = LL_GPIO_OUTPUT_PUSHPULL;
 80003b8:	9406      	str	r4, [sp, #24]
  GPIO_InitStruct.Pull = LL_GPIO_PULL_NO;
 80003ba:	9407      	str	r4, [sp, #28]
  GPIO_InitStruct.Alternate = LL_GPIO_AF_1;
 80003bc:	9508      	str	r5, [sp, #32]
  LL_GPIO_Init(USART_RX_GPIO_Port, &GPIO_InitStruct);
 80003be:	a903      	add	r1, sp, #12
 80003c0:	0038      	movs	r0, r7
 80003c2:	f000 f9b7 	bl	8000734 <LL_GPIO_Init>
  USART_InitStruct.BaudRate = 38400;
 80003c6:	2396      	movs	r3, #150	; 0x96
 80003c8:	021b      	lsls	r3, r3, #8
 80003ca:	9309      	str	r3, [sp, #36]	; 0x24
  USART_InitStruct.DataWidth = LL_USART_DATAWIDTH_8B;
 80003cc:	940a      	str	r4, [sp, #40]	; 0x28
  USART_InitStruct.StopBits = LL_USART_STOPBITS_1;
 80003ce:	940b      	str	r4, [sp, #44]	; 0x2c
  USART_InitStruct.Parity = LL_USART_PARITY_NONE;
 80003d0:	940c      	str	r4, [sp, #48]	; 0x30
  USART_InitStruct.TransferDirection = LL_USART_DIRECTION_TX_RX;
 80003d2:	230c      	movs	r3, #12
 80003d4:	930d      	str	r3, [sp, #52]	; 0x34
  USART_InitStruct.HardwareFlowControl = LL_USART_HWCONTROL_NONE;
 80003d6:	940e      	str	r4, [sp, #56]	; 0x38
  USART_InitStruct.OverSampling = LL_USART_OVERSAMPLING_16;
 80003d8:	940f      	str	r4, [sp, #60]	; 0x3c
  LL_USART_Init(USART2, &USART_InitStruct);
 80003da:	4c0e      	ldr	r4, [pc, #56]	; (8000414 <MX_USART2_UART_Init+0xb8>)
 80003dc:	a909      	add	r1, sp, #36	; 0x24
 80003de:	0020      	movs	r0, r4
 80003e0:	f000 fa8e 	bl	8000900 <LL_USART_Init>
 */
__STATIC_FORCEINLINE uint32_t __get_PRIMASK(void)
{
  uint32_t result;

  __ASM volatile ("MRS %0, primask" : "=r" (result) :: "memory");
 80003e4:	f3ef 8210 	mrs	r2, PRIMASK
  \details Assigns the given value to the Priority Mask Register.
  \param [in]    priMask  Priority Mask
 */
__STATIC_FORCEINLINE void __set_PRIMASK(uint32_t priMask)
{
  __ASM volatile ("MSR primask, %0" : : "r" (priMask) : "memory");
 80003e8:	f385 8810 	msr	PRIMASK, r5
  * @param  USARTx USART Instance
  * @retval None
  */
__STATIC_INLINE void LL_USART_DisableIT_CTS(USART_TypeDef *USARTx)
{
  ATOMIC_CLEAR_BIT(USARTx->CR3, USART_CR3_CTSIE);
 80003ec:	68a3      	ldr	r3, [r4, #8]
 80003ee:	490a      	ldr	r1, [pc, #40]	; (8000418 <MX_USART2_UART_Init+0xbc>)
 80003f0:	400b      	ands	r3, r1
 80003f2:	60a3      	str	r3, [r4, #8]
 80003f4:	f382 8810 	msr	PRIMASK, r2
  CLEAR_BIT(USARTx->CR2, USART_CR2_CLKEN);
 80003f8:	6863      	ldr	r3, [r4, #4]
 80003fa:	4a08      	ldr	r2, [pc, #32]	; (800041c <MX_USART2_UART_Init+0xc0>)
 80003fc:	4013      	ands	r3, r2
 80003fe:	6063      	str	r3, [r4, #4]
  CLEAR_BIT(USARTx->CR3, USART_CR3_HDSEL);
 8000400:	68a3      	ldr	r3, [r4, #8]
 8000402:	43b3      	bics	r3, r6
 8000404:	60a3      	str	r3, [r4, #8]
  SET_BIT(USARTx->CR1, USART_CR1_UE);
 8000406:	6823      	ldr	r3, [r4, #0]
 8000408:	432b      	orrs	r3, r5
 800040a:	6023      	str	r3, [r4, #0]
}
 800040c:	b011      	add	sp, #68	; 0x44
 800040e:	bdf0      	pop	{r4, r5, r6, r7, pc}
 8000410:	40021000 	.word	0x40021000
 8000414:	40004400 	.word	0x40004400
 8000418:	fffffbff 	.word	0xfffffbff
 800041c:	fffff7ff 	.word	0xfffff7ff

08000420 <blikac>:
	 if (Tick > delay + LED_TIME_BLINK) {
 8000420:	4b0b      	ldr	r3, [pc, #44]	; (8000450 <blikac+0x30>)
 8000422:	681b      	ldr	r3, [r3, #0]
 8000424:	332d      	adds	r3, #45	; 0x2d
 8000426:	33ff      	adds	r3, #255	; 0xff
 8000428:	4a0a      	ldr	r2, [pc, #40]	; (8000454 <blikac+0x34>)
 800042a:	6812      	ldr	r2, [r2, #0]
 800042c:	4293      	cmp	r3, r2
 800042e:	d20e      	bcs.n	800044e <blikac+0x2e>
  *         @arg @ref LL_GPIO_PIN_ALL
  * @retval None
  */
__STATIC_INLINE void LL_GPIO_TogglePin(GPIO_TypeDef *GPIOx, uint32_t PinMask)
{
  uint32_t odr = READ_REG(GPIOx->ODR);
 8000430:	2190      	movs	r1, #144	; 0x90
 8000432:	05c9      	lsls	r1, r1, #23
 8000434:	6948      	ldr	r0, [r1, #20]
  WRITE_REG(GPIOx->BSRR, ((odr & PinMask) << 16u) | (~odr & PinMask));
 8000436:	0403      	lsls	r3, r0, #16
 8000438:	2280      	movs	r2, #128	; 0x80
 800043a:	0352      	lsls	r2, r2, #13
 800043c:	4013      	ands	r3, r2
 800043e:	2210      	movs	r2, #16
 8000440:	4382      	bics	r2, r0
 8000442:	4313      	orrs	r3, r2
 8000444:	618b      	str	r3, [r1, #24]
		 delay = Tick;
 8000446:	4b03      	ldr	r3, [pc, #12]	; (8000454 <blikac+0x34>)
 8000448:	681a      	ldr	r2, [r3, #0]
 800044a:	4b01      	ldr	r3, [pc, #4]	; (8000450 <blikac+0x30>)
 800044c:	601a      	str	r2, [r3, #0]
}
 800044e:	4770      	bx	lr
 8000450:	20000024 	.word	0x20000024
 8000454:	20000020 	.word	0x20000020

08000458 <tlacitka>:
{
 8000458:	b510      	push	{r4, lr}
	 if (Tick > delay1 + 40)
 800045a:	4b22      	ldr	r3, [pc, #136]	; (80004e4 <tlacitka+0x8c>)
 800045c:	681b      	ldr	r3, [r3, #0]
 800045e:	3328      	adds	r3, #40	; 0x28
 8000460:	4a21      	ldr	r2, [pc, #132]	; (80004e8 <tlacitka+0x90>)
 8000462:	6812      	ldr	r2, [r2, #0]
 8000464:	4293      	cmp	r3, r2
 8000466:	d232      	bcs.n	80004ce <tlacitka+0x76>
  return (READ_BIT(GPIOx->IDR, PinMask) == (PinMask));
 8000468:	4b20      	ldr	r3, [pc, #128]	; (80004ec <tlacitka+0x94>)
 800046a:	691a      	ldr	r2, [r3, #16]
 800046c:	2101      	movs	r1, #1
 800046e:	000c      	movs	r4, r1
 8000470:	4014      	ands	r4, r2
 8000472:	0021      	movs	r1, r4
 8000474:	691a      	ldr	r2, [r3, #16]
 8000476:	2302      	movs	r3, #2
 8000478:	4013      	ands	r3, r2
 800047a:	0018      	movs	r0, r3
 800047c:	1e42      	subs	r2, r0, #1
 800047e:	4190      	sbcs	r0, r2
		 if (old_s2 && !new_s2) { // falling edge
 8000480:	4a1b      	ldr	r2, [pc, #108]	; (80004f0 <tlacitka+0x98>)
 8000482:	6812      	ldr	r2, [r2, #0]
 8000484:	2a00      	cmp	r2, #0
 8000486:	d009      	beq.n	800049c <tlacitka+0x44>
 8000488:	2c00      	cmp	r4, #0
 800048a:	d107      	bne.n	800049c <tlacitka+0x44>
			 off_time = Tick + LED_TIME_SHORT;
 800048c:	4a16      	ldr	r2, [pc, #88]	; (80004e8 <tlacitka+0x90>)
 800048e:	6812      	ldr	r2, [r2, #0]
 8000490:	3264      	adds	r2, #100	; 0x64
 8000492:	4c18      	ldr	r4, [pc, #96]	; (80004f4 <tlacitka+0x9c>)
 8000494:	6022      	str	r2, [r4, #0]
  WRITE_REG(GPIOx->BSRR, PinMask);
 8000496:	4a18      	ldr	r2, [pc, #96]	; (80004f8 <tlacitka+0xa0>)
 8000498:	2401      	movs	r4, #1
 800049a:	6194      	str	r4, [r2, #24]
		 old_s2 = new_s2;
 800049c:	4a14      	ldr	r2, [pc, #80]	; (80004f0 <tlacitka+0x98>)
 800049e:	6011      	str	r1, [r2, #0]
		 if (old_s1 && !new_s1) { // falling edge
 80004a0:	4a16      	ldr	r2, [pc, #88]	; (80004fc <tlacitka+0xa4>)
 80004a2:	6812      	ldr	r2, [r2, #0]
 80004a4:	2a00      	cmp	r2, #0
 80004a6:	d00c      	beq.n	80004c2 <tlacitka+0x6a>
 80004a8:	2b00      	cmp	r3, #0
 80004aa:	d10a      	bne.n	80004c2 <tlacitka+0x6a>
			 off_time = Tick + LED_TIME_LONG;
 80004ac:	4b0e      	ldr	r3, [pc, #56]	; (80004e8 <tlacitka+0x90>)
 80004ae:	681b      	ldr	r3, [r3, #0]
 80004b0:	22fa      	movs	r2, #250	; 0xfa
 80004b2:	0092      	lsls	r2, r2, #2
 80004b4:	4694      	mov	ip, r2
 80004b6:	4463      	add	r3, ip
 80004b8:	4a0e      	ldr	r2, [pc, #56]	; (80004f4 <tlacitka+0x9c>)
 80004ba:	6013      	str	r3, [r2, #0]
 80004bc:	4b0e      	ldr	r3, [pc, #56]	; (80004f8 <tlacitka+0xa0>)
 80004be:	2201      	movs	r2, #1
 80004c0:	619a      	str	r2, [r3, #24]
		 old_s1 = new_s1;
 80004c2:	4b0e      	ldr	r3, [pc, #56]	; (80004fc <tlacitka+0xa4>)
 80004c4:	6018      	str	r0, [r3, #0]
		 delay1 = Tick;
 80004c6:	4b08      	ldr	r3, [pc, #32]	; (80004e8 <tlacitka+0x90>)
 80004c8:	681a      	ldr	r2, [r3, #0]
 80004ca:	4b06      	ldr	r3, [pc, #24]	; (80004e4 <tlacitka+0x8c>)
 80004cc:	601a      	str	r2, [r3, #0]
	 if (Tick > off_time) {
 80004ce:	4b06      	ldr	r3, [pc, #24]	; (80004e8 <tlacitka+0x90>)
 80004d0:	681a      	ldr	r2, [r3, #0]
 80004d2:	4b08      	ldr	r3, [pc, #32]	; (80004f4 <tlacitka+0x9c>)
 80004d4:	681b      	ldr	r3, [r3, #0]
 80004d6:	429a      	cmp	r2, r3
 80004d8:	d902      	bls.n	80004e0 <tlacitka+0x88>
  WRITE_REG(GPIOx->BRR, PinMask);
 80004da:	4b07      	ldr	r3, [pc, #28]	; (80004f8 <tlacitka+0xa0>)
 80004dc:	2201      	movs	r2, #1
 80004de:	629a      	str	r2, [r3, #40]	; 0x28
}
 80004e0:	bd10      	pop	{r4, pc}
 80004e2:	46c0      	nop			; (mov r8, r8)
 80004e4:	20000028 	.word	0x20000028
 80004e8:	20000020 	.word	0x20000020
 80004ec:	48000800 	.word	0x48000800
 80004f0:	20000034 	.word	0x20000034
 80004f4:	2000002c 	.word	0x2000002c
 80004f8:	48000400 	.word	0x48000400
 80004fc:	20000030 	.word	0x20000030

08000500 <SystemClock_Config>:
{
 8000500:	b510      	push	{r4, lr}
  *         @arg @ref LL_FLASH_LATENCY_1
  * @retval None
  */
__STATIC_INLINE void LL_FLASH_SetLatency(uint32_t Latency)
{
  MODIFY_REG(FLASH->ACR, FLASH_ACR_LATENCY, Latency);
 8000502:	4a25      	ldr	r2, [pc, #148]	; (8000598 <SystemClock_Config+0x98>)
 8000504:	6813      	ldr	r3, [r2, #0]
 8000506:	2101      	movs	r1, #1
 8000508:	438b      	bics	r3, r1
 800050a:	430b      	orrs	r3, r1
 800050c:	6013      	str	r3, [r2, #0]
  *         @arg @ref LL_FLASH_LATENCY_0
  *         @arg @ref LL_FLASH_LATENCY_1
  */
__STATIC_INLINE uint32_t LL_FLASH_GetLatency(void)
{
  return (uint32_t)(READ_BIT(FLASH->ACR, FLASH_ACR_LATENCY));
 800050e:	4b22      	ldr	r3, [pc, #136]	; (8000598 <SystemClock_Config+0x98>)
 8000510:	681b      	ldr	r3, [r3, #0]
  while(LL_FLASH_GetLatency() != LL_FLASH_LATENCY_1)
 8000512:	07db      	lsls	r3, r3, #31
 8000514:	d5fb      	bpl.n	800050e <SystemClock_Config+0xe>
  * @rmtoll CR           HSION         LL_RCC_HSI_Enable
  * @retval None
  */
__STATIC_INLINE void LL_RCC_HSI_Enable(void)
{
  SET_BIT(RCC->CR, RCC_CR_HSION);
 8000516:	4a21      	ldr	r2, [pc, #132]	; (800059c <SystemClock_Config+0x9c>)
 8000518:	6813      	ldr	r3, [r2, #0]
 800051a:	2101      	movs	r1, #1
 800051c:	430b      	orrs	r3, r1
 800051e:	6013      	str	r3, [r2, #0]
  * @rmtoll CR           HSIRDY        LL_RCC_HSI_IsReady
  * @retval State of bit (1 or 0).
  */
__STATIC_INLINE uint32_t LL_RCC_HSI_IsReady(void)
{
  return (READ_BIT(RCC->CR, RCC_CR_HSIRDY) == (RCC_CR_HSIRDY));
 8000520:	4b1e      	ldr	r3, [pc, #120]	; (800059c <SystemClock_Config+0x9c>)
 8000522:	681b      	ldr	r3, [r3, #0]
  while(LL_RCC_HSI_IsReady() != 1)
 8000524:	079b      	lsls	r3, r3, #30
 8000526:	d5fb      	bpl.n	8000520 <SystemClock_Config+0x20>
  * @param  Value between Min_Data = 0x00 and Max_Data = 0x1F
  * @retval None
  */
__STATIC_INLINE void LL_RCC_HSI_SetCalibTrimming(uint32_t Value)
{
  MODIFY_REG(RCC->CR, RCC_CR_HSITRIM, Value << RCC_CR_HSITRIM_Pos);
 8000528:	4b1c      	ldr	r3, [pc, #112]	; (800059c <SystemClock_Config+0x9c>)
 800052a:	681a      	ldr	r2, [r3, #0]
 800052c:	21f8      	movs	r1, #248	; 0xf8
 800052e:	438a      	bics	r2, r1
 8000530:	3978      	subs	r1, #120	; 0x78
 8000532:	430a      	orrs	r2, r1
 8000534:	601a      	str	r2, [r3, #0]
  *         @arg @ref LL_RCC_PLL_MUL_16
  * @retval None
  */
__STATIC_INLINE void LL_RCC_PLL_ConfigDomain_SYS(uint32_t Source, uint32_t PLLMul)
{
  MODIFY_REG(RCC->CFGR, RCC_CFGR_PLLSRC | RCC_CFGR_PLLMUL, (Source & RCC_CFGR_PLLSRC) | PLLMul);
 8000536:	6859      	ldr	r1, [r3, #4]
 8000538:	4a19      	ldr	r2, [pc, #100]	; (80005a0 <SystemClock_Config+0xa0>)
 800053a:	4011      	ands	r1, r2
 800053c:	22a0      	movs	r2, #160	; 0xa0
 800053e:	0392      	lsls	r2, r2, #14
 8000540:	430a      	orrs	r2, r1
 8000542:	605a      	str	r2, [r3, #4]
  MODIFY_REG(RCC->CFGR2, RCC_CFGR2_PREDIV, (Source & RCC_CFGR2_PREDIV));
 8000544:	6ada      	ldr	r2, [r3, #44]	; 0x2c
 8000546:	210f      	movs	r1, #15
 8000548:	438a      	bics	r2, r1
 800054a:	62da      	str	r2, [r3, #44]	; 0x2c
  SET_BIT(RCC->CR, RCC_CR_PLLON);
 800054c:	6819      	ldr	r1, [r3, #0]
 800054e:	2280      	movs	r2, #128	; 0x80
 8000550:	0452      	lsls	r2, r2, #17
 8000552:	430a      	orrs	r2, r1
 8000554:	601a      	str	r2, [r3, #0]
  return (READ_BIT(RCC->CR, RCC_CR_PLLRDY) == (RCC_CR_PLLRDY));
 8000556:	4b11      	ldr	r3, [pc, #68]	; (800059c <SystemClock_Config+0x9c>)
 8000558:	681b      	ldr	r3, [r3, #0]
  while(LL_RCC_PLL_IsReady() != 1)
 800055a:	019b      	lsls	r3, r3, #6
 800055c:	d5fb      	bpl.n	8000556 <SystemClock_Config+0x56>
  MODIFY_REG(RCC->CFGR, RCC_CFGR_HPRE, Prescaler);
 800055e:	4b0f      	ldr	r3, [pc, #60]	; (800059c <SystemClock_Config+0x9c>)
 8000560:	685a      	ldr	r2, [r3, #4]
 8000562:	21f0      	movs	r1, #240	; 0xf0
 8000564:	438a      	bics	r2, r1
 8000566:	605a      	str	r2, [r3, #4]
  MODIFY_REG(RCC->CFGR, RCC_CFGR_PPRE, Prescaler);
 8000568:	685a      	ldr	r2, [r3, #4]
 800056a:	490e      	ldr	r1, [pc, #56]	; (80005a4 <SystemClock_Config+0xa4>)
 800056c:	400a      	ands	r2, r1
 800056e:	605a      	str	r2, [r3, #4]
  MODIFY_REG(RCC->CFGR, RCC_CFGR_SW, Source);
 8000570:	685a      	ldr	r2, [r3, #4]
 8000572:	2103      	movs	r1, #3
 8000574:	438a      	bics	r2, r1
 8000576:	3901      	subs	r1, #1
 8000578:	430a      	orrs	r2, r1
 800057a:	605a      	str	r2, [r3, #4]
  return (uint32_t)(READ_BIT(RCC->CFGR, RCC_CFGR_SWS));
 800057c:	4b07      	ldr	r3, [pc, #28]	; (800059c <SystemClock_Config+0x9c>)
 800057e:	685a      	ldr	r2, [r3, #4]
 8000580:	230c      	movs	r3, #12
 8000582:	4013      	ands	r3, r2
  while(LL_RCC_GetSysClkSource() != LL_RCC_SYS_CLKSOURCE_STATUS_PLL)
 8000584:	2b08      	cmp	r3, #8
 8000586:	d1f9      	bne.n	800057c <SystemClock_Config+0x7c>
  LL_Init1msTick(48000000);
 8000588:	4c07      	ldr	r4, [pc, #28]	; (80005a8 <SystemClock_Config+0xa8>)
 800058a:	0020      	movs	r0, r4
 800058c:	f000 fa1c 	bl	80009c8 <LL_Init1msTick>
  LL_SetSystemCoreClock(48000000);
 8000590:	0020      	movs	r0, r4
 8000592:	f000 fa29 	bl	80009e8 <LL_SetSystemCoreClock>
}
 8000596:	bd10      	pop	{r4, pc}
 8000598:	40022000 	.word	0x40022000
 800059c:	40021000 	.word	0x40021000
 80005a0:	ffc2ffff 	.word	0xffc2ffff
 80005a4:	fffff8ff 	.word	0xfffff8ff
 80005a8:	02dc6c00 	.word	0x02dc6c00

080005ac <main>:
{
 80005ac:	b500      	push	{lr}
 80005ae:	b083      	sub	sp, #12
  * @retval None
*/
__STATIC_INLINE void LL_APB1_GRP2_EnableClock(uint32_t Periphs)
{
  __IO uint32_t tmpreg;
  SET_BIT(RCC->APB2ENR, Periphs);
 80005b0:	4b10      	ldr	r3, [pc, #64]	; (80005f4 <main+0x48>)
 80005b2:	6999      	ldr	r1, [r3, #24]
 80005b4:	2201      	movs	r2, #1
 80005b6:	4311      	orrs	r1, r2
 80005b8:	6199      	str	r1, [r3, #24]
  /* Delay after an RCC peripheral clock enabling */
  tmpreg = READ_BIT(RCC->APB2ENR, Periphs);
 80005ba:	6999      	ldr	r1, [r3, #24]
 80005bc:	400a      	ands	r2, r1
 80005be:	9201      	str	r2, [sp, #4]
  (void)tmpreg;
 80005c0:	9a01      	ldr	r2, [sp, #4]
  SET_BIT(RCC->APB1ENR, Periphs);
 80005c2:	69da      	ldr	r2, [r3, #28]
 80005c4:	2180      	movs	r1, #128	; 0x80
 80005c6:	0549      	lsls	r1, r1, #21
 80005c8:	430a      	orrs	r2, r1
 80005ca:	61da      	str	r2, [r3, #28]
  tmpreg = READ_BIT(RCC->APB1ENR, Periphs);
 80005cc:	69db      	ldr	r3, [r3, #28]
 80005ce:	400b      	ands	r3, r1
 80005d0:	9300      	str	r3, [sp, #0]
  (void)tmpreg;
 80005d2:	9b00      	ldr	r3, [sp, #0]
  SystemClock_Config();
 80005d4:	f7ff ff94 	bl	8000500 <SystemClock_Config>
  MX_GPIO_Init();
 80005d8:	f7ff fe22 	bl	8000220 <MX_GPIO_Init>
  MX_USART2_UART_Init();
 80005dc:	f7ff febe 	bl	800035c <MX_USART2_UART_Init>
  * @rmtoll STK_CTRL     TICKINT       LL_SYSTICK_EnableIT
  * @retval None
  */
__STATIC_INLINE void LL_SYSTICK_EnableIT(void)
{
  SET_BIT(SysTick->CTRL, SysTick_CTRL_TICKINT_Msk);
 80005e0:	4a05      	ldr	r2, [pc, #20]	; (80005f8 <main+0x4c>)
 80005e2:	6813      	ldr	r3, [r2, #0]
 80005e4:	2102      	movs	r1, #2
 80005e6:	430b      	orrs	r3, r1
 80005e8:	6013      	str	r3, [r2, #0]
	  blikac();
 80005ea:	f7ff ff19 	bl	8000420 <blikac>
	  tlacitka();
 80005ee:	f7ff ff33 	bl	8000458 <tlacitka>
  while (1)
 80005f2:	e7fa      	b.n	80005ea <main+0x3e>
 80005f4:	40021000 	.word	0x40021000
 80005f8:	e000e010 	.word	0xe000e010

080005fc <NMI_Handler>:
{
  /* USER CODE BEGIN NonMaskableInt_IRQn 0 */

  /* USER CODE END NonMaskableInt_IRQn 0 */
  /* USER CODE BEGIN NonMaskableInt_IRQn 1 */
  while (1)
 80005fc:	e7fe      	b.n	80005fc <NMI_Handler>

080005fe <HardFault_Handler>:
void HardFault_Handler(void)
{
  /* USER CODE BEGIN HardFault_IRQn 0 */

  /* USER CODE END HardFault_IRQn 0 */
  while (1)
 80005fe:	e7fe      	b.n	80005fe <HardFault_Handler>

08000600 <SVC_Handler>:

  /* USER CODE END SVC_IRQn 0 */
  /* USER CODE BEGIN SVC_IRQn 1 */

  /* USER CODE END SVC_IRQn 1 */
}
 8000600:	4770      	bx	lr

08000602 <PendSV_Handler>:

  /* USER CODE END PendSV_IRQn 0 */
  /* USER CODE BEGIN PendSV_IRQn 1 */

  /* USER CODE END PendSV_IRQn 1 */
}
 8000602:	4770      	bx	lr

08000604 <SysTick_Handler>:
  */
void SysTick_Handler(void)
{
  /* USER CODE BEGIN SysTick_IRQn 0 */

	Tick++;
 8000604:	4a02      	ldr	r2, [pc, #8]	; (8000610 <SysTick_Handler+0xc>)
 8000606:	6813      	ldr	r3, [r2, #0]
 8000608:	3301      	adds	r3, #1
 800060a:	6013      	str	r3, [r2, #0]
  /* USER CODE END SysTick_IRQn 0 */

  /* USER CODE BEGIN SysTick_IRQn 1 */

  /* USER CODE END SysTick_IRQn 1 */
}
 800060c:	4770      	bx	lr
 800060e:	46c0      	nop			; (mov r8, r8)
 8000610:	20000020 	.word	0x20000020

08000614 <SystemInit>:
                         before branch to main program. This call is made inside
                         the "startup_stm32f0xx.s" file.
                         User can setups the default system clock (System clock source, PLL Multiplier
                         and Divider factors, AHB/APBx prescalers and Flash settings).
   */
}
 8000614:	4770      	bx	lr
	...

08000618 <Reset_Handler>:

  .section .text.Reset_Handler
  .weak Reset_Handler
  .type Reset_Handler, %function
Reset_Handler:
  ldr   r0, =_estack
 8000618:	480d      	ldr	r0, [pc, #52]	; (8000650 <LoopForever+0x2>)
  mov   sp, r0          /* set stack pointer */
 800061a:	4685      	mov	sp, r0

/* Copy the data segment initializers from flash to SRAM */
  ldr r0, =_sdata
 800061c:	480d      	ldr	r0, [pc, #52]	; (8000654 <LoopForever+0x6>)
  ldr r1, =_edata
 800061e:	490e      	ldr	r1, [pc, #56]	; (8000658 <LoopForever+0xa>)
  ldr r2, =_sidata
 8000620:	4a0e      	ldr	r2, [pc, #56]	; (800065c <LoopForever+0xe>)
  movs r3, #0
 8000622:	2300      	movs	r3, #0
  b LoopCopyDataInit
 8000624:	e002      	b.n	800062c <LoopCopyDataInit>

08000626 <CopyDataInit>:

CopyDataInit:
  ldr r4, [r2, r3]
 8000626:	58d4      	ldr	r4, [r2, r3]
  str r4, [r0, r3]
 8000628:	50c4      	str	r4, [r0, r3]
  adds r3, r3, #4
 800062a:	3304      	adds	r3, #4

0800062c <LoopCopyDataInit>:

LoopCopyDataInit:
  adds r4, r0, r3
 800062c:	18c4      	adds	r4, r0, r3
  cmp r4, r1
 800062e:	428c      	cmp	r4, r1
  bcc CopyDataInit
 8000630:	d3f9      	bcc.n	8000626 <CopyDataInit>
  
/* Zero fill the bss segment. */
  ldr r2, =_sbss
 8000632:	4a0b      	ldr	r2, [pc, #44]	; (8000660 <LoopForever+0x12>)
  ldr r4, =_ebss
 8000634:	4c0b      	ldr	r4, [pc, #44]	; (8000664 <LoopForever+0x16>)
  movs r3, #0
 8000636:	2300      	movs	r3, #0
  b LoopFillZerobss
 8000638:	e001      	b.n	800063e <LoopFillZerobss>

0800063a <FillZerobss>:

FillZerobss:
  str  r3, [r2]
 800063a:	6013      	str	r3, [r2, #0]
  adds r2, r2, #4
 800063c:	3204      	adds	r2, #4

0800063e <LoopFillZerobss>:

LoopFillZerobss:
  cmp r2, r4
 800063e:	42a2      	cmp	r2, r4
  bcc FillZerobss
 8000640:	d3fb      	bcc.n	800063a <FillZerobss>

/* Call the clock system intitialization function.*/
  bl  SystemInit
 8000642:	f7ff ffe7 	bl	8000614 <SystemInit>
/* Call static constructors */
  bl __libc_init_array
 8000646:	f000 f9dd 	bl	8000a04 <__libc_init_array>
/* Call the application's entry point.*/
  bl main
 800064a:	f7ff ffaf 	bl	80005ac <main>

0800064e <LoopForever>:

LoopForever:
    b LoopForever
 800064e:	e7fe      	b.n	800064e <LoopForever>
  ldr   r0, =_estack
 8000650:	20002000 	.word	0x20002000
  ldr r0, =_sdata
 8000654:	20000000 	.word	0x20000000
  ldr r1, =_edata
 8000658:	20000004 	.word	0x20000004
  ldr r2, =_sidata
 800065c:	08000a84 	.word	0x08000a84
  ldr r2, =_sbss
 8000660:	20000004 	.word	0x20000004
  ldr r4, =_ebss
 8000664:	20000038 	.word	0x20000038

08000668 <ADC1_IRQHandler>:
 * @retval : None
*/
    .section .text.Default_Handler,"ax",%progbits
Default_Handler:
Infinite_Loop:
  b Infinite_Loop
 8000668:	e7fe      	b.n	8000668 <ADC1_IRQHandler>
	...

0800066c <LL_EXTI_Init>:
  * @retval An ErrorStatus enumeration value:
  *          - SUCCESS: EXTI registers are initialized
  *          - ERROR: not applicable
  */
uint32_t LL_EXTI_Init(LL_EXTI_InitTypeDef *EXTI_InitStruct)
{
 800066c:	b510      	push	{r4, lr}
 800066e:	0003      	movs	r3, r0
  assert_param(IS_LL_EXTI_LINE_0_31(EXTI_InitStruct->Line_0_31));
  assert_param(IS_FUNCTIONAL_STATE(EXTI_InitStruct->LineCommand));
  assert_param(IS_LL_EXTI_MODE(EXTI_InitStruct->Mode));

  /* ENABLE LineCommand */
  if (EXTI_InitStruct->LineCommand != DISABLE)
 8000670:	7900      	ldrb	r0, [r0, #4]
 8000672:	2800      	cmp	r0, #0
 8000674:	d050      	beq.n	8000718 <LL_EXTI_Init+0xac>
  {
    assert_param(IS_LL_EXTI_TRIGGER(EXTI_InitStruct->Trigger));

    /* Configure EXTI Lines in range from 0 to 31 */
    if (EXTI_InitStruct->Line_0_31 != LL_EXTI_LINE_NONE)
 8000676:	681a      	ldr	r2, [r3, #0]
 8000678:	2a00      	cmp	r2, #0
 800067a:	d057      	beq.n	800072c <LL_EXTI_Init+0xc0>
    {
      switch (EXTI_InitStruct->Mode)
 800067c:	7958      	ldrb	r0, [r3, #5]
 800067e:	2801      	cmp	r0, #1
 8000680:	d018      	beq.n	80006b4 <LL_EXTI_Init+0x48>
 8000682:	2802      	cmp	r0, #2
 8000684:	d020      	beq.n	80006c8 <LL_EXTI_Init+0x5c>
 8000686:	2800      	cmp	r0, #0
 8000688:	d00b      	beq.n	80006a2 <LL_EXTI_Init+0x36>
 800068a:	2001      	movs	r0, #1
          break;
        default:
          status = ERROR;
          break;
      }
      if (EXTI_InitStruct->Trigger != LL_EXTI_TRIGGER_NONE)
 800068c:	799a      	ldrb	r2, [r3, #6]
 800068e:	2a00      	cmp	r2, #0
 8000690:	d04b      	beq.n	800072a <LL_EXTI_Init+0xbe>
      {
        switch (EXTI_InitStruct->Trigger)
 8000692:	2a02      	cmp	r2, #2
 8000694:	d02c      	beq.n	80006f0 <LL_EXTI_Init+0x84>
 8000696:	2a03      	cmp	r2, #3
 8000698:	d034      	beq.n	8000704 <LL_EXTI_Init+0x98>
 800069a:	2a01      	cmp	r2, #1
 800069c:	d01e      	beq.n	80006dc <LL_EXTI_Init+0x70>
 800069e:	2001      	movs	r0, #1
 80006a0:	e043      	b.n	800072a <LL_EXTI_Init+0xbe>
  * @note   Please check each device line mapping for EXTI Line availability
  * @retval None
  */
__STATIC_INLINE void LL_EXTI_DisableEvent_0_31(uint32_t ExtiLine)
{
  CLEAR_BIT(EXTI->EMR, ExtiLine);
 80006a2:	4923      	ldr	r1, [pc, #140]	; (8000730 <LL_EXTI_Init+0xc4>)
 80006a4:	684c      	ldr	r4, [r1, #4]
 80006a6:	4394      	bics	r4, r2
 80006a8:	604c      	str	r4, [r1, #4]
          LL_EXTI_EnableIT_0_31(EXTI_InitStruct->Line_0_31);
 80006aa:	681a      	ldr	r2, [r3, #0]
  SET_BIT(EXTI->IMR, ExtiLine);
 80006ac:	680c      	ldr	r4, [r1, #0]
 80006ae:	4322      	orrs	r2, r4
 80006b0:	600a      	str	r2, [r1, #0]
}
 80006b2:	e7eb      	b.n	800068c <LL_EXTI_Init+0x20>
  CLEAR_BIT(EXTI->IMR, ExtiLine);
 80006b4:	491e      	ldr	r1, [pc, #120]	; (8000730 <LL_EXTI_Init+0xc4>)
 80006b6:	6808      	ldr	r0, [r1, #0]
 80006b8:	4390      	bics	r0, r2
 80006ba:	6008      	str	r0, [r1, #0]
          LL_EXTI_EnableEvent_0_31(EXTI_InitStruct->Line_0_31);
 80006bc:	681a      	ldr	r2, [r3, #0]
  SET_BIT(EXTI->EMR, ExtiLine);
 80006be:	6848      	ldr	r0, [r1, #4]
 80006c0:	4302      	orrs	r2, r0
 80006c2:	604a      	str	r2, [r1, #4]
  ErrorStatus status = SUCCESS;
 80006c4:	2000      	movs	r0, #0
}
 80006c6:	e7e1      	b.n	800068c <LL_EXTI_Init+0x20>
  SET_BIT(EXTI->IMR, ExtiLine);
 80006c8:	4919      	ldr	r1, [pc, #100]	; (8000730 <LL_EXTI_Init+0xc4>)
 80006ca:	6808      	ldr	r0, [r1, #0]
 80006cc:	4302      	orrs	r2, r0
 80006ce:	600a      	str	r2, [r1, #0]
          LL_EXTI_EnableEvent_0_31(EXTI_InitStruct->Line_0_31);
 80006d0:	681a      	ldr	r2, [r3, #0]
  SET_BIT(EXTI->EMR, ExtiLine);
 80006d2:	6848      	ldr	r0, [r1, #4]
 80006d4:	4302      	orrs	r2, r0
 80006d6:	604a      	str	r2, [r1, #4]
  ErrorStatus status = SUCCESS;
 80006d8:	2000      	movs	r0, #0
}
 80006da:	e7d7      	b.n	800068c <LL_EXTI_Init+0x20>
        {
          case LL_EXTI_TRIGGER_RISING:
            /* First Disable Falling Trigger on provided Lines */
            LL_EXTI_DisableFallingTrig_0_31(EXTI_InitStruct->Line_0_31);
 80006dc:	681c      	ldr	r4, [r3, #0]
  * @note   Please check each device line mapping for EXTI Line availability
  * @retval None
  */
__STATIC_INLINE void LL_EXTI_DisableFallingTrig_0_31(uint32_t ExtiLine)
{
  CLEAR_BIT(EXTI->FTSR, ExtiLine);
 80006de:	4a14      	ldr	r2, [pc, #80]	; (8000730 <LL_EXTI_Init+0xc4>)
 80006e0:	68d1      	ldr	r1, [r2, #12]
 80006e2:	43a1      	bics	r1, r4
 80006e4:	60d1      	str	r1, [r2, #12]
            /* Then Enable Rising Trigger on provided Lines */
            LL_EXTI_EnableRisingTrig_0_31(EXTI_InitStruct->Line_0_31);
 80006e6:	681b      	ldr	r3, [r3, #0]
  SET_BIT(EXTI->RTSR, ExtiLine);
 80006e8:	6891      	ldr	r1, [r2, #8]
 80006ea:	430b      	orrs	r3, r1
 80006ec:	6093      	str	r3, [r2, #8]
}
 80006ee:	e01c      	b.n	800072a <LL_EXTI_Init+0xbe>
            break;
          case LL_EXTI_TRIGGER_FALLING:
            /* First Disable Rising Trigger on provided Lines */
            LL_EXTI_DisableRisingTrig_0_31(EXTI_InitStruct->Line_0_31);
 80006f0:	681c      	ldr	r4, [r3, #0]
  CLEAR_BIT(EXTI->RTSR, ExtiLine);
 80006f2:	4a0f      	ldr	r2, [pc, #60]	; (8000730 <LL_EXTI_Init+0xc4>)
 80006f4:	6891      	ldr	r1, [r2, #8]
 80006f6:	43a1      	bics	r1, r4
 80006f8:	6091      	str	r1, [r2, #8]
            /* Then Enable Falling Trigger on provided Lines */
            LL_EXTI_EnableFallingTrig_0_31(EXTI_InitStruct->Line_0_31);
 80006fa:	681b      	ldr	r3, [r3, #0]
  SET_BIT(EXTI->FTSR, ExtiLine);
 80006fc:	68d1      	ldr	r1, [r2, #12]
 80006fe:	430b      	orrs	r3, r1
 8000700:	60d3      	str	r3, [r2, #12]
}
 8000702:	e012      	b.n	800072a <LL_EXTI_Init+0xbe>
            break;
          case LL_EXTI_TRIGGER_RISING_FALLING:
            LL_EXTI_EnableRisingTrig_0_31(EXTI_InitStruct->Line_0_31);
 8000704:	6819      	ldr	r1, [r3, #0]
  SET_BIT(EXTI->RTSR, ExtiLine);
 8000706:	4a0a      	ldr	r2, [pc, #40]	; (8000730 <LL_EXTI_Init+0xc4>)
 8000708:	6894      	ldr	r4, [r2, #8]
 800070a:	4321      	orrs	r1, r4
 800070c:	6091      	str	r1, [r2, #8]
            LL_EXTI_EnableFallingTrig_0_31(EXTI_InitStruct->Line_0_31);
 800070e:	681b      	ldr	r3, [r3, #0]
  SET_BIT(EXTI->FTSR, ExtiLine);
 8000710:	68d1      	ldr	r1, [r2, #12]
 8000712:	430b      	orrs	r3, r1
 8000714:	60d3      	str	r3, [r2, #12]
}
 8000716:	e008      	b.n	800072a <LL_EXTI_Init+0xbe>
  }
  /* DISABLE LineCommand */
  else
  {
    /* De-configure EXTI Lines in range from 0 to 31 */
    LL_EXTI_DisableIT_0_31(EXTI_InitStruct->Line_0_31);
 8000718:	681c      	ldr	r4, [r3, #0]
  CLEAR_BIT(EXTI->IMR, ExtiLine);
 800071a:	4a05      	ldr	r2, [pc, #20]	; (8000730 <LL_EXTI_Init+0xc4>)
 800071c:	6811      	ldr	r1, [r2, #0]
 800071e:	43a1      	bics	r1, r4
 8000720:	6011      	str	r1, [r2, #0]
    LL_EXTI_DisableEvent_0_31(EXTI_InitStruct->Line_0_31);
 8000722:	6819      	ldr	r1, [r3, #0]
  CLEAR_BIT(EXTI->EMR, ExtiLine);
 8000724:	6853      	ldr	r3, [r2, #4]
 8000726:	438b      	bics	r3, r1
 8000728:	6053      	str	r3, [r2, #4]
  }
  return status;
}
 800072a:	bd10      	pop	{r4, pc}
  ErrorStatus status = SUCCESS;
 800072c:	2000      	movs	r0, #0
 800072e:	e7fc      	b.n	800072a <LL_EXTI_Init+0xbe>
 8000730:	40010400 	.word	0x40010400

08000734 <LL_GPIO_Init>:
  * @retval An ErrorStatus enumeration value:
  *          - SUCCESS: GPIO registers are initialized according to GPIO_InitStruct content
  *          - ERROR:   Not applicable
  */
ErrorStatus LL_GPIO_Init(GPIO_TypeDef *GPIOx, LL_GPIO_InitTypeDef *GPIO_InitStruct)
{
 8000734:	b5f0      	push	{r4, r5, r6, r7, lr}
  assert_param(IS_LL_GPIO_MODE(GPIO_InitStruct->Mode));
  assert_param(IS_LL_GPIO_PULL(GPIO_InitStruct->Pull));

  /* ------------------------- Configure the port pins ---------------- */
  /* Initialize  pinpos on first pin set */
  pinpos = 0;
 8000736:	2200      	movs	r2, #0

  /* Configure the port pins */
  while (((GPIO_InitStruct->Pin) >> pinpos) != 0x00u)
 8000738:	e016      	b.n	8000768 <LL_GPIO_Init+0x34>
        /* Output mode configuration*/
        LL_GPIO_SetPinOutputType(GPIOx, GPIO_InitStruct->Pin, GPIO_InitStruct->OutputType);
      }

      /* Pull-up Pull down resistor configuration*/
      LL_GPIO_SetPinPull(GPIOx, currentpin, GPIO_InitStruct->Pull);
 800073a:	690b      	ldr	r3, [r1, #16]
 800073c:	469c      	mov	ip, r3
  MODIFY_REG(GPIOx->PUPDR, ((Pin * Pin) * GPIO_PUPDR_PUPDR0), ((Pin * Pin) * Pull));
 800073e:	68c4      	ldr	r4, [r0, #12]
 8000740:	002b      	movs	r3, r5
 8000742:	436b      	muls	r3, r5
 8000744:	005e      	lsls	r6, r3, #1
 8000746:	18f6      	adds	r6, r6, r3
 8000748:	43f7      	mvns	r7, r6
 800074a:	43b4      	bics	r4, r6
 800074c:	4666      	mov	r6, ip
 800074e:	435e      	muls	r6, r3
 8000750:	4334      	orrs	r4, r6
 8000752:	60c4      	str	r4, [r0, #12]

      if (GPIO_InitStruct->Mode == LL_GPIO_MODE_ALTERNATE)
 8000754:	684c      	ldr	r4, [r1, #4]
 8000756:	2c02      	cmp	r4, #2
 8000758:	d026      	beq.n	80007a8 <LL_GPIO_Init+0x74>
          LL_GPIO_SetAFPin_8_15(GPIOx, currentpin, GPIO_InitStruct->Alternate);
        }
      }

      /* Pin Mode configuration */
      LL_GPIO_SetPinMode(GPIOx, currentpin, GPIO_InitStruct->Mode);
 800075a:	684d      	ldr	r5, [r1, #4]
  MODIFY_REG(GPIOx->MODER, ((Pin * Pin) * GPIO_MODER_MODER0), ((Pin * Pin) * Mode));
 800075c:	6804      	ldr	r4, [r0, #0]
 800075e:	403c      	ands	r4, r7
 8000760:	436b      	muls	r3, r5
 8000762:	4323      	orrs	r3, r4
 8000764:	6003      	str	r3, [r0, #0]
    }
    pinpos++;
 8000766:	3201      	adds	r2, #1
  while (((GPIO_InitStruct->Pin) >> pinpos) != 0x00u)
 8000768:	680c      	ldr	r4, [r1, #0]
 800076a:	0023      	movs	r3, r4
 800076c:	40d3      	lsrs	r3, r2
 800076e:	d03b      	beq.n	80007e8 <LL_GPIO_Init+0xb4>
    currentpin = (GPIO_InitStruct->Pin) & (0x00000001uL << pinpos);
 8000770:	2301      	movs	r3, #1
 8000772:	4093      	lsls	r3, r2
 8000774:	0025      	movs	r5, r4
 8000776:	401d      	ands	r5, r3
    if (currentpin != 0x00u)
 8000778:	421c      	tst	r4, r3
 800077a:	d0f4      	beq.n	8000766 <LL_GPIO_Init+0x32>
      if ((GPIO_InitStruct->Mode == LL_GPIO_MODE_OUTPUT) || (GPIO_InitStruct->Mode == LL_GPIO_MODE_ALTERNATE))
 800077c:	684b      	ldr	r3, [r1, #4]
 800077e:	3b01      	subs	r3, #1
 8000780:	2b01      	cmp	r3, #1
 8000782:	d8da      	bhi.n	800073a <LL_GPIO_Init+0x6>
        LL_GPIO_SetPinSpeed(GPIOx, currentpin, GPIO_InitStruct->Speed);
 8000784:	688f      	ldr	r7, [r1, #8]
  MODIFY_REG(GPIOx->OSPEEDR, ((Pin * Pin) * GPIO_OSPEEDR_OSPEEDR0), ((Pin * Pin) * Speed));
 8000786:	6883      	ldr	r3, [r0, #8]
 8000788:	002c      	movs	r4, r5
 800078a:	436c      	muls	r4, r5
 800078c:	0066      	lsls	r6, r4, #1
 800078e:	1936      	adds	r6, r6, r4
 8000790:	43b3      	bics	r3, r6
 8000792:	437c      	muls	r4, r7
 8000794:	4323      	orrs	r3, r4
 8000796:	6083      	str	r3, [r0, #8]
        LL_GPIO_SetPinOutputType(GPIOx, GPIO_InitStruct->Pin, GPIO_InitStruct->OutputType);
 8000798:	680e      	ldr	r6, [r1, #0]
 800079a:	68cc      	ldr	r4, [r1, #12]
  MODIFY_REG(GPIOx->OTYPER, PinMask, (PinMask * OutputType));
 800079c:	6843      	ldr	r3, [r0, #4]
 800079e:	43b3      	bics	r3, r6
 80007a0:	4374      	muls	r4, r6
 80007a2:	4323      	orrs	r3, r4
 80007a4:	6043      	str	r3, [r0, #4]
}
 80007a6:	e7c8      	b.n	800073a <LL_GPIO_Init+0x6>
        if (currentpin < LL_GPIO_PIN_8)
 80007a8:	2dff      	cmp	r5, #255	; 0xff
 80007aa:	d80d      	bhi.n	80007c8 <LL_GPIO_Init+0x94>
          LL_GPIO_SetAFPin_0_7(GPIOx, currentpin, GPIO_InitStruct->Alternate);
 80007ac:	694c      	ldr	r4, [r1, #20]
 80007ae:	46a4      	mov	ip, r4
  MODIFY_REG(GPIOx->AFR[0], ((((Pin * Pin) * Pin) * Pin) * GPIO_AFRL_AFSEL0),
 80007b0:	6a06      	ldr	r6, [r0, #32]
 80007b2:	001c      	movs	r4, r3
 80007b4:	436c      	muls	r4, r5
 80007b6:	436c      	muls	r4, r5
 80007b8:	0125      	lsls	r5, r4, #4
 80007ba:	1b2d      	subs	r5, r5, r4
 80007bc:	43ae      	bics	r6, r5
 80007be:	4665      	mov	r5, ip
 80007c0:	436c      	muls	r4, r5
 80007c2:	4334      	orrs	r4, r6
 80007c4:	6204      	str	r4, [r0, #32]
}
 80007c6:	e7c8      	b.n	800075a <LL_GPIO_Init+0x26>
          LL_GPIO_SetAFPin_8_15(GPIOx, currentpin, GPIO_InitStruct->Alternate);
 80007c8:	694c      	ldr	r4, [r1, #20]
 80007ca:	46a4      	mov	ip, r4
  MODIFY_REG(GPIOx->AFR[1], (((((Pin >> 8U) * (Pin >> 8U)) * (Pin >> 8U)) * (Pin >> 8U)) * GPIO_AFRH_AFSEL8),
 80007cc:	6a46      	ldr	r6, [r0, #36]	; 0x24
 80007ce:	0a2d      	lsrs	r5, r5, #8
 80007d0:	002c      	movs	r4, r5
 80007d2:	436c      	muls	r4, r5
 80007d4:	436c      	muls	r4, r5
 80007d6:	436c      	muls	r4, r5
 80007d8:	0125      	lsls	r5, r4, #4
 80007da:	1b2d      	subs	r5, r5, r4
 80007dc:	43ae      	bics	r6, r5
 80007de:	4665      	mov	r5, ip
 80007e0:	436c      	muls	r4, r5
 80007e2:	4334      	orrs	r4, r6
 80007e4:	6244      	str	r4, [r0, #36]	; 0x24
}
 80007e6:	e7b8      	b.n	800075a <LL_GPIO_Init+0x26>
  }

  return (SUCCESS);
}
 80007e8:	2000      	movs	r0, #0
 80007ea:	bdf0      	pop	{r4, r5, r6, r7, pc}

080007ec <RCC_GetHCLKClockFreq>:
  return (uint32_t)(READ_BIT(RCC->CFGR, RCC_CFGR_HPRE));
 80007ec:	4b04      	ldr	r3, [pc, #16]	; (8000800 <RCC_GetHCLKClockFreq+0x14>)
 80007ee:	685a      	ldr	r2, [r3, #4]
  * @retval HCLK clock frequency (in Hz)
  */
uint32_t RCC_GetHCLKClockFreq(uint32_t SYSCLK_Frequency)
{
  /* HCLK clock frequency */
  return __LL_RCC_CALC_HCLK_FREQ(SYSCLK_Frequency, LL_RCC_GetAHBPrescaler());
 80007f0:	0912      	lsrs	r2, r2, #4
 80007f2:	230f      	movs	r3, #15
 80007f4:	4013      	ands	r3, r2
 80007f6:	4a03      	ldr	r2, [pc, #12]	; (8000804 <RCC_GetHCLKClockFreq+0x18>)
 80007f8:	5cd3      	ldrb	r3, [r2, r3]
 80007fa:	40d8      	lsrs	r0, r3
}
 80007fc:	4770      	bx	lr
 80007fe:	46c0      	nop			; (mov r8, r8)
 8000800:	40021000 	.word	0x40021000
 8000804:	08000a64 	.word	0x08000a64

08000808 <RCC_GetPCLK1ClockFreq>:
  return (uint32_t)(READ_BIT(RCC->CFGR, RCC_CFGR_PPRE));
 8000808:	4b04      	ldr	r3, [pc, #16]	; (800081c <RCC_GetPCLK1ClockFreq+0x14>)
 800080a:	685a      	ldr	r2, [r3, #4]
  * @retval PCLK1 clock frequency (in Hz)
  */
uint32_t RCC_GetPCLK1ClockFreq(uint32_t HCLK_Frequency)
{
  /* PCLK1 clock frequency */
  return __LL_RCC_CALC_PCLK1_FREQ(HCLK_Frequency, LL_RCC_GetAPB1Prescaler());
 800080c:	0a12      	lsrs	r2, r2, #8
 800080e:	2307      	movs	r3, #7
 8000810:	4013      	ands	r3, r2
 8000812:	4a03      	ldr	r2, [pc, #12]	; (8000820 <RCC_GetPCLK1ClockFreq+0x18>)
 8000814:	5cd3      	ldrb	r3, [r2, r3]
 8000816:	40d8      	lsrs	r0, r3
}
 8000818:	4770      	bx	lr
 800081a:	46c0      	nop			; (mov r8, r8)
 800081c:	40021000 	.word	0x40021000
 8000820:	08000a74 	.word	0x08000a74

08000824 <RCC_PLL_GetFreqDomain_SYS>:
/**
  * @brief  Return PLL clock frequency used for system domain
  * @retval PLL clock frequency (in Hz)
  */
uint32_t RCC_PLL_GetFreqDomain_SYS(void)
{
 8000824:	b570      	push	{r4, r5, r6, lr}
  *
  *         (*) value not defined in all devices
  */
__STATIC_INLINE uint32_t LL_RCC_PLL_GetMainSource(void)
{
  return (uint32_t)(READ_BIT(RCC->CFGR, RCC_CFGR_PLLSRC));
 8000826:	4b0b      	ldr	r3, [pc, #44]	; (8000854 <RCC_PLL_GetFreqDomain_SYS+0x30>)
 8000828:	685b      	ldr	r3, [r3, #4]
 800082a:	2280      	movs	r2, #128	; 0x80
 800082c:	0252      	lsls	r2, r2, #9
 800082e:	4013      	ands	r3, r2
  /* PLL_VCO = (HSE_VALUE or HSI_VALUE / PLL divider) * PLL Multiplicator */

  /* Get PLL source */
  pllsource = LL_RCC_PLL_GetMainSource();

  switch (pllsource)
 8000830:	4293      	cmp	r3, r2
 8000832:	d00d      	beq.n	8000850 <RCC_PLL_GetFreqDomain_SYS+0x2c>
#if defined(RCC_PLLSRC_PREDIV1_SUPPORT)
    case LL_RCC_PLLSOURCE_HSI:       /* HSI used as PLL clock source */
      pllinputfreq = HSI_VALUE;
#else
    case LL_RCC_PLLSOURCE_HSI_DIV_2: /* HSI used as PLL clock source */
      pllinputfreq = HSI_VALUE / 2U;
 8000834:	4808      	ldr	r0, [pc, #32]	; (8000858 <RCC_PLL_GetFreqDomain_SYS+0x34>)
  *         @arg @ref LL_RCC_PREDIV_DIV_15
  *         @arg @ref LL_RCC_PREDIV_DIV_16
  */
__STATIC_INLINE uint32_t LL_RCC_PLL_GetPrediv(void)
{
  return (uint32_t)(READ_BIT(RCC->CFGR2, RCC_CFGR2_PREDIV));
 8000836:	4d07      	ldr	r5, [pc, #28]	; (8000854 <RCC_PLL_GetFreqDomain_SYS+0x30>)
 8000838:	6ae9      	ldr	r1, [r5, #44]	; 0x2c
 800083a:	240f      	movs	r4, #15
 800083c:	4021      	ands	r1, r4
      break;
  }
#if defined(RCC_PLLSRC_PREDIV1_SUPPORT)
  return __LL_RCC_CALC_PLLCLK_FREQ(pllinputfreq, LL_RCC_PLL_GetMultiplicator(), LL_RCC_PLL_GetPrediv());
#else
  return __LL_RCC_CALC_PLLCLK_FREQ((pllinputfreq / (LL_RCC_PLL_GetPrediv() + 1U)), LL_RCC_PLL_GetMultiplicator());
 800083e:	3101      	adds	r1, #1
 8000840:	f7ff fc62 	bl	8000108 <__udivsi3>
  return (uint32_t)(READ_BIT(RCC->CFGR, RCC_CFGR_PLLMUL));
 8000844:	686b      	ldr	r3, [r5, #4]
 8000846:	0c9b      	lsrs	r3, r3, #18
 8000848:	401c      	ands	r4, r3
 800084a:	3402      	adds	r4, #2
 800084c:	4360      	muls	r0, r4
#endif /* RCC_PLLSRC_PREDIV1_SUPPORT */
}
 800084e:	bd70      	pop	{r4, r5, r6, pc}
      pllinputfreq = HSE_VALUE;
 8000850:	4802      	ldr	r0, [pc, #8]	; (800085c <RCC_PLL_GetFreqDomain_SYS+0x38>)
 8000852:	e7f0      	b.n	8000836 <RCC_PLL_GetFreqDomain_SYS+0x12>
 8000854:	40021000 	.word	0x40021000
 8000858:	003d0900 	.word	0x003d0900
 800085c:	007a1200 	.word	0x007a1200

08000860 <RCC_GetSystemClockFreq>:
{
 8000860:	b510      	push	{r4, lr}
  return (uint32_t)(READ_BIT(RCC->CFGR, RCC_CFGR_SWS));
 8000862:	4b05      	ldr	r3, [pc, #20]	; (8000878 <RCC_GetSystemClockFreq+0x18>)
 8000864:	685a      	ldr	r2, [r3, #4]
 8000866:	230c      	movs	r3, #12
 8000868:	4013      	ands	r3, r2
  switch (LL_RCC_GetSysClkSource())
 800086a:	2b08      	cmp	r3, #8
 800086c:	d001      	beq.n	8000872 <RCC_GetSystemClockFreq+0x12>
      frequency = HSI_VALUE;
 800086e:	4803      	ldr	r0, [pc, #12]	; (800087c <RCC_GetSystemClockFreq+0x1c>)
}
 8000870:	bd10      	pop	{r4, pc}
      frequency = RCC_PLL_GetFreqDomain_SYS();
 8000872:	f7ff ffd7 	bl	8000824 <RCC_PLL_GetFreqDomain_SYS>
      break;
 8000876:	e7fb      	b.n	8000870 <RCC_GetSystemClockFreq+0x10>
 8000878:	40021000 	.word	0x40021000
 800087c:	007a1200 	.word	0x007a1200

08000880 <LL_RCC_GetSystemClocksFreq>:
{
 8000880:	b510      	push	{r4, lr}
 8000882:	0004      	movs	r4, r0
  RCC_Clocks->SYSCLK_Frequency = RCC_GetSystemClockFreq();
 8000884:	f7ff ffec 	bl	8000860 <RCC_GetSystemClockFreq>
 8000888:	6020      	str	r0, [r4, #0]
  RCC_Clocks->HCLK_Frequency   = RCC_GetHCLKClockFreq(RCC_Clocks->SYSCLK_Frequency);
 800088a:	f7ff ffaf 	bl	80007ec <RCC_GetHCLKClockFreq>
 800088e:	6060      	str	r0, [r4, #4]
  RCC_Clocks->PCLK1_Frequency  = RCC_GetPCLK1ClockFreq(RCC_Clocks->HCLK_Frequency);
 8000890:	f7ff ffba 	bl	8000808 <RCC_GetPCLK1ClockFreq>
 8000894:	60a0      	str	r0, [r4, #8]
}
 8000896:	bd10      	pop	{r4, pc}

08000898 <LL_RCC_GetUSARTClockFreq>:
{
 8000898:	b510      	push	{r4, lr}
  if (USARTxSource == LL_RCC_USART1_CLKSOURCE)
 800089a:	2800      	cmp	r0, #0
 800089c:	d129      	bne.n	80008f2 <LL_RCC_GetUSARTClockFreq+0x5a>
  return (uint32_t)(READ_BIT(RCC->CFGR3, (RCC_CFGR3_USART1SW << USARTx)) | (USARTx << 24U));
 800089e:	4b16      	ldr	r3, [pc, #88]	; (80008f8 <LL_RCC_GetUSARTClockFreq+0x60>)
 80008a0:	6b1a      	ldr	r2, [r3, #48]	; 0x30
 80008a2:	2303      	movs	r3, #3
 80008a4:	4083      	lsls	r3, r0
 80008a6:	4013      	ands	r3, r2
 80008a8:	0600      	lsls	r0, r0, #24
 80008aa:	4303      	orrs	r3, r0
    switch (LL_RCC_GetUSARTClockSource(USARTxSource))
 80008ac:	2b02      	cmp	r3, #2
 80008ae:	d016      	beq.n	80008de <LL_RCC_GetUSARTClockFreq+0x46>
 80008b0:	2b03      	cmp	r3, #3
 80008b2:	d00b      	beq.n	80008cc <LL_RCC_GetUSARTClockFreq+0x34>
 80008b4:	2b01      	cmp	r3, #1
 80008b6:	d006      	beq.n	80008c6 <LL_RCC_GetUSARTClockFreq+0x2e>
        usart_frequency = RCC_GetPCLK1ClockFreq(RCC_GetHCLKClockFreq(RCC_GetSystemClockFreq()));
 80008b8:	f7ff ffd2 	bl	8000860 <RCC_GetSystemClockFreq>
 80008bc:	f7ff ff96 	bl	80007ec <RCC_GetHCLKClockFreq>
 80008c0:	f7ff ffa2 	bl	8000808 <RCC_GetPCLK1ClockFreq>
        break;
 80008c4:	e016      	b.n	80008f4 <LL_RCC_GetUSARTClockFreq+0x5c>
        usart_frequency = RCC_GetSystemClockFreq();
 80008c6:	f7ff ffcb 	bl	8000860 <RCC_GetSystemClockFreq>
        break;
 80008ca:	e013      	b.n	80008f4 <LL_RCC_GetUSARTClockFreq+0x5c>
  return (READ_BIT(RCC->CR, RCC_CR_HSIRDY) == (RCC_CR_HSIRDY));
 80008cc:	4b0a      	ldr	r3, [pc, #40]	; (80008f8 <LL_RCC_GetUSARTClockFreq+0x60>)
 80008ce:	681b      	ldr	r3, [r3, #0]
 80008d0:	2202      	movs	r2, #2
 80008d2:	0010      	movs	r0, r2
 80008d4:	4018      	ands	r0, r3
        if (LL_RCC_HSI_IsReady())
 80008d6:	421a      	tst	r2, r3
 80008d8:	d00c      	beq.n	80008f4 <LL_RCC_GetUSARTClockFreq+0x5c>
          usart_frequency = HSI_VALUE;
 80008da:	4808      	ldr	r0, [pc, #32]	; (80008fc <LL_RCC_GetUSARTClockFreq+0x64>)
 80008dc:	e00a      	b.n	80008f4 <LL_RCC_GetUSARTClockFreq+0x5c>
  return (READ_BIT(RCC->BDCR, RCC_BDCR_LSERDY) == (RCC_BDCR_LSERDY));
 80008de:	4b06      	ldr	r3, [pc, #24]	; (80008f8 <LL_RCC_GetUSARTClockFreq+0x60>)
 80008e0:	6a1b      	ldr	r3, [r3, #32]
 80008e2:	2202      	movs	r2, #2
 80008e4:	0010      	movs	r0, r2
 80008e6:	4018      	ands	r0, r3
        if (LL_RCC_LSE_IsReady())
 80008e8:	421a      	tst	r2, r3
 80008ea:	d003      	beq.n	80008f4 <LL_RCC_GetUSARTClockFreq+0x5c>
          usart_frequency = LSE_VALUE;
 80008ec:	2080      	movs	r0, #128	; 0x80
 80008ee:	0200      	lsls	r0, r0, #8
  return usart_frequency;
 80008f0:	e000      	b.n	80008f4 <LL_RCC_GetUSARTClockFreq+0x5c>
  uint32_t usart_frequency = LL_RCC_PERIPH_FREQUENCY_NO;
 80008f2:	2000      	movs	r0, #0
}
 80008f4:	bd10      	pop	{r4, pc}
 80008f6:	46c0      	nop			; (mov r8, r8)
 80008f8:	40021000 	.word	0x40021000
 80008fc:	007a1200 	.word	0x007a1200

08000900 <LL_USART_Init>:
  * @retval An ErrorStatus enumeration value:
  *          - SUCCESS: USART registers are initialized according to USART_InitStruct content
  *          - ERROR: Problem occurred during USART Registers initialization
  */
ErrorStatus LL_USART_Init(USART_TypeDef *USARTx, LL_USART_InitTypeDef *USART_InitStruct)
{
 8000900:	b530      	push	{r4, r5, lr}
 8000902:	b085      	sub	sp, #20
 8000904:	0004      	movs	r4, r0
 8000906:	000d      	movs	r5, r1
  return ((READ_BIT(USARTx->CR1, USART_CR1_UE) == (USART_CR1_UE)) ? 1UL : 0UL);
 8000908:	6803      	ldr	r3, [r0, #0]
 800090a:	07db      	lsls	r3, r3, #31
 800090c:	d44a      	bmi.n	80009a4 <LL_USART_Init+0xa4>
     * - DataWidth:          USART_CR1_M bits according to USART_InitStruct->DataWidth value
     * - Parity:             USART_CR1_PCE, USART_CR1_PS bits according to USART_InitStruct->Parity value
     * - TransferDirection:  USART_CR1_TE, USART_CR1_RE bits according to USART_InitStruct->TransferDirection value
     * - Oversampling:       USART_CR1_OVER8 bit according to USART_InitStruct->OverSampling value.
     */
    MODIFY_REG(USARTx->CR1,
 800090e:	6803      	ldr	r3, [r0, #0]
 8000910:	4a27      	ldr	r2, [pc, #156]	; (80009b0 <LL_USART_Init+0xb0>)
 8000912:	401a      	ands	r2, r3
 8000914:	684b      	ldr	r3, [r1, #4]
 8000916:	68c9      	ldr	r1, [r1, #12]
 8000918:	430b      	orrs	r3, r1
 800091a:	6929      	ldr	r1, [r5, #16]
 800091c:	430b      	orrs	r3, r1
 800091e:	69a9      	ldr	r1, [r5, #24]
 8000920:	430b      	orrs	r3, r1
 8000922:	4313      	orrs	r3, r2
 8000924:	6003      	str	r3, [r0, #0]
    /*---------------------------- USART CR2 Configuration ---------------------
     * Configure USARTx CR2 (Stop bits) with parameters:
     * - Stop Bits:          USART_CR2_STOP bits according to USART_InitStruct->StopBits value.
     * - CLKEN, CPOL, CPHA and LBCL bits are to be configured using LL_USART_ClockInit().
     */
    LL_USART_SetStopBitsLength(USARTx, USART_InitStruct->StopBits);
 8000926:	68ab      	ldr	r3, [r5, #8]
  MODIFY_REG(USARTx->CR2, USART_CR2_STOP, StopBits);
 8000928:	6842      	ldr	r2, [r0, #4]
 800092a:	4922      	ldr	r1, [pc, #136]	; (80009b4 <LL_USART_Init+0xb4>)
 800092c:	400a      	ands	r2, r1
 800092e:	4313      	orrs	r3, r2
 8000930:	6043      	str	r3, [r0, #4]
    /*---------------------------- USART CR3 Configuration ---------------------
     * Configure USARTx CR3 (Hardware Flow Control) with parameters:
     * - HardwareFlowControl: USART_CR3_RTSE, USART_CR3_CTSE bits according to
     *   USART_InitStruct->HardwareFlowControl value.
     */
    LL_USART_SetHWFlowCtrl(USARTx, USART_InitStruct->HardwareFlowControl);
 8000932:	696b      	ldr	r3, [r5, #20]
  MODIFY_REG(USARTx->CR3, USART_CR3_RTSE | USART_CR3_CTSE, HardwareFlowControl);
 8000934:	6882      	ldr	r2, [r0, #8]
 8000936:	4920      	ldr	r1, [pc, #128]	; (80009b8 <LL_USART_Init+0xb8>)
 8000938:	400a      	ands	r2, r1
 800093a:	4313      	orrs	r3, r2
 800093c:	6083      	str	r3, [r0, #8]

    /*---------------------------- USART BRR Configuration ---------------------
     * Retrieve Clock frequency used for USART Peripheral
     */
    if (USARTx == USART1)
 800093e:	4b1f      	ldr	r3, [pc, #124]	; (80009bc <LL_USART_Init+0xbc>)
 8000940:	4298      	cmp	r0, r3
 8000942:	d004      	beq.n	800094e <LL_USART_Init+0x4e>
    {
      periphclk = LL_RCC_GetUSARTClockFreq(LL_RCC_USART1_CLKSOURCE);
    }
#if defined(USART2)
    else if (USARTx == USART2)
 8000944:	4b1e      	ldr	r3, [pc, #120]	; (80009c0 <LL_USART_Init+0xc0>)
 8000946:	4298      	cmp	r0, r3
 8000948:	d00b      	beq.n	8000962 <LL_USART_Init+0x62>
  ErrorStatus status = ERROR;
 800094a:	2001      	movs	r0, #1
 800094c:	e02b      	b.n	80009a6 <LL_USART_Init+0xa6>
      periphclk = LL_RCC_GetUSARTClockFreq(LL_RCC_USART1_CLKSOURCE);
 800094e:	2000      	movs	r0, #0
 8000950:	f7ff ffa2 	bl	8000898 <LL_RCC_GetUSARTClockFreq>

    /* Configure the USART Baud Rate :
       - valid baud rate value (different from 0) is required
       - Peripheral clock as returned by RCC service, should be valid (different from 0).
    */
    if ((periphclk != LL_RCC_PERIPH_FREQUENCY_NO)
 8000954:	2800      	cmp	r0, #0
 8000956:	d028      	beq.n	80009aa <LL_USART_Init+0xaa>
        && (USART_InitStruct->BaudRate != 0U))
 8000958:	6829      	ldr	r1, [r5, #0]
 800095a:	2900      	cmp	r1, #0
 800095c:	d106      	bne.n	800096c <LL_USART_Init+0x6c>
  ErrorStatus status = ERROR;
 800095e:	2001      	movs	r0, #1
 8000960:	e021      	b.n	80009a6 <LL_USART_Init+0xa6>
      LL_RCC_GetSystemClocksFreq(&RCC_Clocks);
 8000962:	a801      	add	r0, sp, #4
 8000964:	f7ff ff8c 	bl	8000880 <LL_RCC_GetSystemClocksFreq>
      periphclk = RCC_Clocks.PCLK1_Frequency;
 8000968:	9803      	ldr	r0, [sp, #12]
 800096a:	e7f3      	b.n	8000954 <LL_USART_Init+0x54>
    {
      status = SUCCESS;
      LL_USART_SetBaudRate(USARTx,
 800096c:	69aa      	ldr	r2, [r5, #24]
  if (OverSampling == LL_USART_OVERSAMPLING_8)
 800096e:	2380      	movs	r3, #128	; 0x80
 8000970:	021b      	lsls	r3, r3, #8
 8000972:	429a      	cmp	r2, r3
 8000974:	d008      	beq.n	8000988 <LL_USART_Init+0x88>
    USARTx->BRR = (uint16_t)(__LL_USART_DIV_SAMPLING16(PeriphClk, BaudRate));
 8000976:	084b      	lsrs	r3, r1, #1
 8000978:	18c0      	adds	r0, r0, r3
 800097a:	f7ff fbc5 	bl	8000108 <__udivsi3>
 800097e:	0403      	lsls	r3, r0, #16
 8000980:	0c1b      	lsrs	r3, r3, #16
 8000982:	60e3      	str	r3, [r4, #12]
      status = SUCCESS;
 8000984:	2000      	movs	r0, #0
}
 8000986:	e00e      	b.n	80009a6 <LL_USART_Init+0xa6>
    usartdiv = (uint16_t)(__LL_USART_DIV_SAMPLING8(PeriphClk, BaudRate));
 8000988:	0040      	lsls	r0, r0, #1
 800098a:	084b      	lsrs	r3, r1, #1
 800098c:	18c0      	adds	r0, r0, r3
 800098e:	f7ff fbbb 	bl	8000108 <__udivsi3>
    brrtemp = usartdiv & 0xFFF0U;
 8000992:	4b0c      	ldr	r3, [pc, #48]	; (80009c4 <LL_USART_Init+0xc4>)
 8000994:	4003      	ands	r3, r0
    brrtemp |= (uint16_t)((usartdiv & (uint16_t)0x000FU) >> 1U);
 8000996:	0400      	lsls	r0, r0, #16
 8000998:	0c40      	lsrs	r0, r0, #17
 800099a:	2207      	movs	r2, #7
 800099c:	4002      	ands	r2, r0
 800099e:	4313      	orrs	r3, r2
    USARTx->BRR = brrtemp;
 80009a0:	60e3      	str	r3, [r4, #12]
 80009a2:	e7ef      	b.n	8000984 <LL_USART_Init+0x84>
  ErrorStatus status = ERROR;
 80009a4:	2001      	movs	r0, #1
    }
  }
  /* Endif (=> USART not in Disabled state => return ERROR) */

  return (status);
}
 80009a6:	b005      	add	sp, #20
 80009a8:	bd30      	pop	{r4, r5, pc}
  ErrorStatus status = ERROR;
 80009aa:	2001      	movs	r0, #1
 80009ac:	e7fb      	b.n	80009a6 <LL_USART_Init+0xa6>
 80009ae:	46c0      	nop			; (mov r8, r8)
 80009b0:	ffff69f3 	.word	0xffff69f3
 80009b4:	ffffcfff 	.word	0xffffcfff
 80009b8:	fffffcff 	.word	0xfffffcff
 80009bc:	40013800 	.word	0x40013800
 80009c0:	40004400 	.word	0x40004400
 80009c4:	0000fff0 	.word	0x0000fff0

080009c8 <LL_Init1msTick>:
  * @param  HCLKFrequency HCLK frequency in Hz
  * @note   HCLK frequency can be calculated thanks to RCC helper macro or function @ref LL_RCC_GetSystemClocksFreq
  * @retval None
  */
void LL_Init1msTick(uint32_t HCLKFrequency)
{
 80009c8:	b510      	push	{r4, lr}
  * @retval None
  */
__STATIC_INLINE void LL_InitTick(uint32_t HCLKFrequency, uint32_t Ticks)
{
  /* Configure the SysTick to have interrupt in 1ms time base */
  SysTick->LOAD  = (uint32_t)((HCLKFrequency / Ticks) - 1UL);  /* set reload register */
 80009ca:	21fa      	movs	r1, #250	; 0xfa
 80009cc:	0089      	lsls	r1, r1, #2
 80009ce:	f7ff fb9b 	bl	8000108 <__udivsi3>
 80009d2:	3801      	subs	r0, #1
 80009d4:	4b03      	ldr	r3, [pc, #12]	; (80009e4 <LL_Init1msTick+0x1c>)
 80009d6:	6058      	str	r0, [r3, #4]
  SysTick->VAL   = 0UL;                                       /* Load the SysTick Counter Value */
 80009d8:	2200      	movs	r2, #0
 80009da:	609a      	str	r2, [r3, #8]
  SysTick->CTRL  = SysTick_CTRL_CLKSOURCE_Msk |
 80009dc:	3205      	adds	r2, #5
 80009de:	601a      	str	r2, [r3, #0]
  /* Use frequency provided in argument */
  LL_InitTick(HCLKFrequency, 1000U);
}
 80009e0:	bd10      	pop	{r4, pc}
 80009e2:	46c0      	nop			; (mov r8, r8)
 80009e4:	e000e010 	.word	0xe000e010

080009e8 <LL_SetSystemCoreClock>:
  * @retval None
  */
void LL_SetSystemCoreClock(uint32_t HCLKFrequency)
{
  /* HCLK clock frequency */
  SystemCoreClock = HCLKFrequency;
 80009e8:	4b01      	ldr	r3, [pc, #4]	; (80009f0 <LL_SetSystemCoreClock+0x8>)
 80009ea:	6018      	str	r0, [r3, #0]
}
 80009ec:	4770      	bx	lr
 80009ee:	46c0      	nop			; (mov r8, r8)
 80009f0:	20000000 	.word	0x20000000

080009f4 <memset>:
 80009f4:	0003      	movs	r3, r0
 80009f6:	1882      	adds	r2, r0, r2
 80009f8:	4293      	cmp	r3, r2
 80009fa:	d100      	bne.n	80009fe <memset+0xa>
 80009fc:	4770      	bx	lr
 80009fe:	7019      	strb	r1, [r3, #0]
 8000a00:	3301      	adds	r3, #1
 8000a02:	e7f9      	b.n	80009f8 <memset+0x4>

08000a04 <__libc_init_array>:
 8000a04:	b570      	push	{r4, r5, r6, lr}
 8000a06:	2600      	movs	r6, #0
 8000a08:	4c0c      	ldr	r4, [pc, #48]	; (8000a3c <__libc_init_array+0x38>)
 8000a0a:	4d0d      	ldr	r5, [pc, #52]	; (8000a40 <__libc_init_array+0x3c>)
 8000a0c:	1b64      	subs	r4, r4, r5
 8000a0e:	10a4      	asrs	r4, r4, #2
 8000a10:	42a6      	cmp	r6, r4
 8000a12:	d109      	bne.n	8000a28 <__libc_init_array+0x24>
 8000a14:	2600      	movs	r6, #0
 8000a16:	f000 f819 	bl	8000a4c <_init>
 8000a1a:	4c0a      	ldr	r4, [pc, #40]	; (8000a44 <__libc_init_array+0x40>)
 8000a1c:	4d0a      	ldr	r5, [pc, #40]	; (8000a48 <__libc_init_array+0x44>)
 8000a1e:	1b64      	subs	r4, r4, r5
 8000a20:	10a4      	asrs	r4, r4, #2
 8000a22:	42a6      	cmp	r6, r4
 8000a24:	d105      	bne.n	8000a32 <__libc_init_array+0x2e>
 8000a26:	bd70      	pop	{r4, r5, r6, pc}
 8000a28:	00b3      	lsls	r3, r6, #2
 8000a2a:	58eb      	ldr	r3, [r5, r3]
 8000a2c:	4798      	blx	r3
 8000a2e:	3601      	adds	r6, #1
 8000a30:	e7ee      	b.n	8000a10 <__libc_init_array+0xc>
 8000a32:	00b3      	lsls	r3, r6, #2
 8000a34:	58eb      	ldr	r3, [r5, r3]
 8000a36:	4798      	blx	r3
 8000a38:	3601      	adds	r6, #1
 8000a3a:	e7f2      	b.n	8000a22 <__libc_init_array+0x1e>
 8000a3c:	08000a7c 	.word	0x08000a7c
 8000a40:	08000a7c 	.word	0x08000a7c
 8000a44:	08000a80 	.word	0x08000a80
 8000a48:	08000a7c 	.word	0x08000a7c

08000a4c <_init>:
 8000a4c:	b5f8      	push	{r3, r4, r5, r6, r7, lr}
 8000a4e:	46c0      	nop			; (mov r8, r8)
 8000a50:	bcf8      	pop	{r3, r4, r5, r6, r7}
 8000a52:	bc08      	pop	{r3}
 8000a54:	469e      	mov	lr, r3
 8000a56:	4770      	bx	lr

08000a58 <_fini>:
 8000a58:	b5f8      	push	{r3, r4, r5, r6, r7, lr}
 8000a5a:	46c0      	nop			; (mov r8, r8)
 8000a5c:	bcf8      	pop	{r3, r4, r5, r6, r7}
 8000a5e:	bc08      	pop	{r3}
 8000a60:	469e      	mov	lr, r3
 8000a62:	4770      	bx	lr
